	.text
	.syntax unified
	.eabi_attribute	67, "2.09"	@ Tag_conformance
	.cpu	cortex-m55
	.eabi_attribute	6, 21	@ Tag_CPU_arch
	.eabi_attribute	7, 77	@ Tag_CPU_arch_profile
	.eabi_attribute	8, 0	@ Tag_ARM_ISA_use
	.eabi_attribute	9, 3	@ Tag_THUMB_ISA_use
	.fpu	fpv5-d16
	.arch_extension	mve.fp
	.eabi_attribute	36, 1	@ Tag_FP_HP_extension
	.eabi_attribute	48, 2	@ Tag_MVE_arch
	.eabi_attribute	46, 1	@ Tag_DSP_extension
	.eabi_attribute	34, 1	@ Tag_CPU_unaligned_access
	.eabi_attribute	17, 1	@ Tag_ABI_PCS_GOT_use
	.eabi_attribute	20, 2	@ Tag_ABI_FP_denormal
	.eabi_attribute	21, 0	@ Tag_ABI_FP_exceptions
	.eabi_attribute	23, 1	@ Tag_ABI_FP_number_model
	.eabi_attribute	24, 1	@ Tag_ABI_align_needed
	.eabi_attribute	25, 1	@ Tag_ABI_align_preserved
	.eabi_attribute	28, 1	@ Tag_ABI_VFP_args
	.eabi_attribute	38, 1	@ Tag_ABI_FP_16bit_format
	.eabi_attribute	18, 2	@ Tag_ABI_PCS_wchar_t
	.eabi_attribute	26, 1	@ Tag_ABI_enum_size
	.eabi_attribute	14, 0	@ Tag_ABI_PCS_R9_use
	.file	"Labels.cpp"
	.file	1 "C:\\Users\\antia\\TING\\114\\chip\\ML_M55M1_SampleCode\\M55M1BSP-3.01.003\\SampleCode\\NuEdgeWise\\ObjectTracker_YOLOv8n\\KEIL" "../Model/Labels.cpp"
	.file	2 "C:\\Users\\antia" "AppData\\Local\\Keil_v5\\ARM\\ARMCLANG\\bin\\..\\include\\libcxx\\vector"
	.file	3 "C:\\Users\\antia" "AppData\\Local\\Keil_v5\\ARM\\ARMCLANG\\bin\\..\\include\\libcxx\\stdexcept"
	.file	4 "C:\\Users\\antia" "AppData\\Local\\Keil_v5\\ARM\\ARMCLANG\\bin\\..\\include\\libcxx\\new"
	.file	5 "C:\\Users\\antia" "AppData\\Local\\Keil_v5\\ARM\\ARMCLANG\\bin\\..\\include\\libcxx\\string"
	.file	6 "C:\\Users\\antia" "AppData\\Local\\Keil_v5\\ARM\\ARMCLANG\\bin\\..\\include\\stdlib.h"
	.file	7 "C:\\Users\\antia" "AppData\\Local\\Keil_v5\\ARM\\ARMCLANG\\bin\\..\\include\\libcxx\\__type_traits\\datasizeof.h"
	.file	8 "C:\\Users\\antia" "AppData\\Local\\Keil_v5\\ARM\\ARMCLANG\\bin\\..\\include\\libcxx\\limits"
	.file	9 "C:\\Users\\antia" "AppData\\Local\\Keil_v5\\ARM\\ARMCLANG\\bin\\..\\include\\libcxx\\__string\\char_traits.h"
	.file	10 "C:\\Users\\antia" "AppData\\Local\\Keil_v5\\ARM\\ARMCLANG\\bin\\..\\include\\stdio.h"
	.file	11 "C:\\Users\\antia" "AppData\\Local\\Keil_v5\\ARM\\ARMCLANG\\bin\\..\\include\\libcxx\\__memory\\allocator.h"
	.file	12 "C:\\Users\\antia" "AppData\\Local\\Keil_v5\\ARM\\ARMCLANG\\bin\\..\\include\\time.h"
	.file	13 "C:\\Users\\antia" "AppData\\Local\\Keil_v5\\ARM\\ARMCLANG\\bin\\..\\include\\libcxx\\__memory\\allocator_traits.h"
	.file	14 "C:\\Users\\antia" "AppData\\Local\\Keil_v5\\ARM\\ARMCLANG\\bin\\..\\include\\libcxx\\__memory\\compressed_pair.h"
	.file	15 "C:\\Users\\antia" "AppData\\Local\\Keil_v5\\ARM\\ARMCLANG\\bin\\..\\include\\libcxx\\string_view"
	.file	16 "C:\\Users\\antia" "AppData\\Local\\Keil_v5\\ARM\\ARMCLANG\\bin\\..\\include\\libcxx\\__type_traits\\integral_constant.h"
	.file	17 "C:\\Users\\antia" "AppData\\Local\\Keil_v5\\ARM\\ARMCLANG\\bin\\..\\include\\libcxx\\__string\\constexpr_c_functions.h"
	.file	18 "C:\\Users\\antia" "AppData\\Local\\Keil_v5\\ARM\\ARMCLANG\\bin\\..\\include\\libcxx\\__split_buffer"
	.file	19 "C:\\Users\\antia" "AppData\\Local\\Keil_v5\\ARM\\ARMCLANG\\bin\\..\\include\\libcxx\\__type_traits\\remove_reference.h"
	.section	.text._Z15GetLabelsVectorRNSt3__26vectorINS_12basic_stringIcNS_11char_traitsIcEENS_9allocatorIcEEEENS4_IS6_EEEE,"ax",%progbits
	.hidden	_Z15GetLabelsVectorRNSt3__26vectorINS_12basic_stringIcNS_11char_traitsIcEENS_9allocatorIcEEEENS4_IS6_EEEE @ -- Begin function _Z15GetLabelsVectorRNSt3__26vectorINS_12basic_stringIcNS_11char_traitsIcEENS_9allocatorIcEEEENS4_IS6_EEEE
	.globl	_Z15GetLabelsVectorRNSt3__26vectorINS_12basic_stringIcNS_11char_traitsIcEENS_9allocatorIcEEEENS4_IS6_EEEE
	.p2align	2
	.type	_Z15GetLabelsVectorRNSt3__26vectorINS_12basic_stringIcNS_11char_traitsIcEENS_9allocatorIcEEEENS4_IS6_EEEE,%function
	.code	16                              @ @_Z15GetLabelsVectorRNSt3__26vectorINS_12basic_stringIcNS_11char_traitsIcEENS_9allocatorIcEEEENS4_IS6_EEEE
	.thumb_func
_Z15GetLabelsVectorRNSt3__26vectorINS_12basic_stringIcNS_11char_traitsIcEENS_9allocatorIcEEEENS4_IS6_EEEE:
.Lfunc_begin0:
	.loc	1 92 0                          @ ../Model/Labels.cpp:92:0
	.fnstart
	.cfi_sections .debug_frame
	.cfi_startproc
@ %bb.0:
	@DEBUG_VALUE: GetLabelsVector:labels <- $r0
	@DEBUG_VALUE: clear:this <- $r0
	@DEBUG_VALUE: size:this <- $r0
	.save	{r4, r5, r6, r7, r8, r9, r10, r11, lr}
	push.w	{r4, r5, r6, r7, r8, r9, r10, r11, lr}
	.cfi_def_cfa_offset 36
	.cfi_offset lr, -4
	.cfi_offset r11, -8
	.cfi_offset r10, -12
	.cfi_offset r9, -16
	.cfi_offset r8, -20
	.cfi_offset r7, -24
	.cfi_offset r6, -28
	.cfi_offset r5, -32
	.cfi_offset r4, -36
	.pad	#4
	sub	sp, #4
	.cfi_def_cfa_offset 40
.Ltmp0:
	.loc	2 634 56 prologue_end           @ AppData\Local\Keil_v5\ARM\ARMCLANG\bin\..\include\libcxx\vector:634:56
	ldrd	r9, r4, [r0]
	@DEBUG_VALUE: __base_destruct_at_end:this <- $r8
	@DEBUG_VALUE: __clear:this <- $r8
	mov	r8, r0
.Ltmp1:
	@DEBUG_VALUE: GetLabelsVector:labels <- $r8
	@DEBUG_VALUE: __base_destruct_at_end:__soon_to_be_end <- undef
	@DEBUG_VALUE: clear:__old_size <- [DW_OP_LLVM_arg 0, DW_OP_LLVM_arg 0, DW_OP_minus, DW_OP_constu 12, DW_OP_div, DW_OP_stack_value] undef
	@DEBUG_VALUE: __base_destruct_at_end:__new_last <- undef
	@DEBUG_VALUE: GetLabelsVector:labelsSz <- 80
	@DEBUG_VALUE: size:this <- $r8
	@DEBUG_VALUE: clear:this <- $r8
	@DEBUG_VALUE: GetLabelsVector:labels <- $r8
	.loc	2 0 56 is_stmt 0                @ AppData\Local\Keil_v5\ARM\ARMCLANG\bin\..\include\libcxx\vector:0:56
	mov	r6, r9
.Ltmp2:
	.loc	2 983 5 is_stmt 1               @ AppData\Local\Keil_v5\ARM\ARMCLANG\bin\..\include\libcxx\vector:983:5
	cmp	r9, r4
	bne	.LBB0_2
	b	.LBB0_5
.Ltmp3:
	.loc	2 0 5 is_stmt 0                 @ :0:5
.Ltmp4:
	.p2align	2
.LBB0_1:                                @   in Loop: Header=BB0_2 Depth=1
	@DEBUG_VALUE: clear:this <- $r8
	@DEBUG_VALUE: GetLabelsVector:labelsSz <- 80
	@DEBUG_VALUE: GetLabelsVector:labels <- $r8
	subs	r4, #12
	@DEBUG_VALUE: __is_long:this <- $r4
	@DEBUG_VALUE: ~basic_string:this <- $r4
	@DEBUG_VALUE: destroy:__p <- $r4
	@DEBUG_VALUE: destroy<std::__2::basic_string<char, std::__2::char_traits<char>, std::__2::allocator<char> >, 0>:__p <- $r4
.Ltmp5:
	@DEBUG_VALUE: __base_destruct_at_end:__soon_to_be_end <- $r4
	.loc	2 983 5                         @ AppData\Local\Keil_v5\ARM\ARMCLANG\bin\..\include\libcxx\vector:983:5
	cmp	r4, r9
	beq	.LBB0_4
.Ltmp6:
.LBB0_2:                                @ =>This Inner Loop Header: Depth=1
	@DEBUG_VALUE: clear:this <- $r8
	@DEBUG_VALUE: GetLabelsVector:labelsSz <- 80
	@DEBUG_VALUE: GetLabelsVector:labels <- $r8
	@DEBUG_VALUE: __base_destruct_at_end:__soon_to_be_end <- undef
	@DEBUG_VALUE: destroy<std::__2::basic_string<char, std::__2::char_traits<char>, std::__2::allocator<char> >, 0>:__p <- undef
	@DEBUG_VALUE: destroy:__p <- undef
	@DEBUG_VALUE: ~basic_string:this <- undef
	@DEBUG_VALUE: __is_long:this <- undef
	@DEBUG_VALUE: destroy<std::__2::basic_string<char, std::__2::char_traits<char>, std::__2::allocator<char> >, 0>:__a <- [DW_OP_plus_uconst 8, DW_OP_stack_value] $r8
	@DEBUG_VALUE: destroy:this <- [DW_OP_plus_uconst 8, DW_OP_stack_value] $r8
	.loc	5 1881 29 is_stmt 1             @ AppData\Local\Keil_v5\ARM\ARMCLANG\bin\..\include\libcxx\string:1881:29
	ldrsb	r0, [r4, #-1]
.Ltmp7:
	.loc	5 1212 9                        @ AppData\Local\Keil_v5\ARM\ARMCLANG\bin\..\include\libcxx\string:1212:9
	cmp.w	r0, #-1
	bgt	.LBB0_1
.Ltmp8:
@ %bb.3:                                @   in Loop: Header=BB0_2 Depth=1
	@DEBUG_VALUE: destroy:this <- [DW_OP_plus_uconst 8, DW_OP_stack_value] $r8
	@DEBUG_VALUE: destroy<std::__2::basic_string<char, std::__2::char_traits<char>, std::__2::allocator<char> >, 0>:__a <- [DW_OP_plus_uconst 8, DW_OP_stack_value] $r8
	@DEBUG_VALUE: clear:this <- $r8
	@DEBUG_VALUE: GetLabelsVector:labelsSz <- 80
	@DEBUG_VALUE: GetLabelsVector:labels <- $r8
	.loc	5 1985 29                       @ AppData\Local\Keil_v5\ARM\ARMCLANG\bin\..\include\libcxx\string:1985:29
	ldr	r1, [r4, #-4]
.Ltmp9:
	@DEBUG_VALUE: __get_long_pointer:this <- $r4
	.loc	5 1992 12                       @ AppData\Local\Keil_v5\ARM\ARMCLANG\bin\..\include\libcxx\string:1992:12
	ldr	r0, [r4, #-12]
.Ltmp10:
	@DEBUG_VALUE: __get_long_cap:this <- [DW_OP_plus_uconst 4294967284, DW_OP_stack_value] $r4
	.loc	5 1985 29                       @ AppData\Local\Keil_v5\ARM\ARMCLANG\bin\..\include\libcxx\string:1985:29
	bic	r1, r1, #-2147483648
.Ltmp11:
	@DEBUG_VALUE: deallocate:this <- [DW_OP_plus_uconst 4294967284, DW_OP_stack_value] $r4
	@DEBUG_VALUE: deallocate:__a <- [DW_OP_plus_uconst 4294967284, DW_OP_stack_value] $r4
	@DEBUG_VALUE: __libcpp_operator_delete<void *, unsigned int>:__args <- $r0
	@DEBUG_VALUE: __do_deallocate_handle_size<>:__ptr <- $r0
	@DEBUG_VALUE: __libcpp_deallocate:__align <- 1
	@DEBUG_VALUE: __libcpp_deallocate:__ptr <- $r0
	@DEBUG_VALUE: deallocate:__p <- $r0
	@DEBUG_VALUE: deallocate:__p <- $r0
	@DEBUG_VALUE: __libcpp_operator_delete<void *, unsigned int>:__args <- $r1
	@DEBUG_VALUE: __do_deallocate_handle_size<>:__size <- $r1
	@DEBUG_VALUE: __libcpp_deallocate:__size <- $r1
	@DEBUG_VALUE: deallocate:__n <- $r1
	@DEBUG_VALUE: deallocate:__n <- $r1
	.loc	4 281 3                         @ AppData\Local\Keil_v5\ARM\ARMCLANG\bin\..\include\libcxx\new:281:3
	bl	_ZdlPvj
.Ltmp12:
	.loc	4 0 3 is_stmt 0                 @ AppData\Local\Keil_v5\ARM\ARMCLANG\bin\..\include\libcxx\new:0:3
	b	.LBB0_1
.Ltmp13:
.LBB0_4:
	@DEBUG_VALUE: GetLabelsVector:labelsSz <- 80
	@DEBUG_VALUE: GetLabelsVector:labels <- $r8
	.loc	2 637 55 is_stmt 1              @ AppData\Local\Keil_v5\ARM\ARMCLANG\bin\..\include\libcxx\vector:637:55
	ldr.w	r6, [r8]
.Ltmp14:
.LBB0_5:
	@DEBUG_VALUE: GetLabelsVector:labelsSz <- 80
	@DEBUG_VALUE: GetLabelsVector:labels <- $r8
	.loc	2 637 35 is_stmt 0              @ AppData\Local\Keil_v5\ARM\ARMCLANG\bin\..\include\libcxx\vector:637:35
	ldr.w	r0, [r8, #8]
	movw	r1, #43691
	movt	r1, #43690
	.loc	2 637 47                        @ AppData\Local\Keil_v5\ARM\ARMCLANG\bin\..\include\libcxx\vector:637:47
	subs	r4, r0, r6
	asrs	r0, r4, #2
	muls	r0, r1, r0
.Ltmp15:
	.loc	2 985 18 is_stmt 1              @ AppData\Local\Keil_v5\ARM\ARMCLANG\bin\..\include\libcxx\vector:985:18
	str.w	r9, [r8, #4]
.Ltmp16:
	@DEBUG_VALUE: __end_cap:this <- $r8
	@DEBUG_VALUE: capacity:this <- $r8
	@DEBUG_VALUE: reserve:__n <- 80
	@DEBUG_VALUE: reserve:this <- $r8
	@DEBUG_VALUE: __split_buffer:this <- undef
	@DEBUG_VALUE: __swap_out_circular_buffer:__v <- undef
	@DEBUG_VALUE: ~__split_buffer:this <- undef
	.loc	2 1463 7                        @ AppData\Local\Keil_v5\ARM\ARMCLANG\bin\..\include\libcxx\vector:1463:7
	cmp	r0, #79
	bhi	.LBB0_8
.Ltmp17:
@ %bb.6:
	@DEBUG_VALUE: reserve:this <- $r8
	@DEBUG_VALUE: reserve:__n <- 80
	@DEBUG_VALUE: GetLabelsVector:labelsSz <- 80
	@DEBUG_VALUE: GetLabelsVector:labels <- $r8
	@DEBUG_VALUE: __a <- [DW_OP_plus_uconst 8, DW_OP_stack_value] $r8
	@DEBUG_VALUE: size:this <- $r8
	.loc	4 272 10                        @ AppData\Local\Keil_v5\ARM\ARMCLANG\bin\..\include\libcxx\new:272:10
	mov.w	r0, #960
.Ltmp18:
	.loc	2 634 48                        @ AppData\Local\Keil_v5\ARM\ARMCLANG\bin\..\include\libcxx\vector:634:48
	sub.w	r5, r9, r6
.Ltmp19:
	@DEBUG_VALUE: __libcpp_operator_new<unsigned int>:__args <- 960
	@DEBUG_VALUE: __libcpp_allocate:__align <- 4
	@DEBUG_VALUE: __libcpp_allocate:__size <- 960
	@DEBUG_VALUE: allocate:__n <- 80
	@DEBUG_VALUE: allocate:this <- undef
	@DEBUG_VALUE: __allocate_at_least<std::__2::allocator<std::__2::basic_string<char, std::__2::char_traits<char>, std::__2::allocator<char> > > >:__n <- 80
	@DEBUG_VALUE: __allocate_at_least<std::__2::allocator<std::__2::basic_string<char, std::__2::char_traits<char>, std::__2::allocator<char> > > >:__alloc <- undef
	@DEBUG_VALUE: __v <- [DW_OP_plus_uconst 8, DW_OP_stack_value, DW_OP_LLVM_fragment 128 32] $r8
	@DEBUG_VALUE: __v <- [DW_OP_LLVM_fragment 96 32] 0
	@DEBUG_VALUE: __split_buffer:__a <- [DW_OP_plus_uconst 8, DW_OP_stack_value] $r8
	@DEBUG_VALUE: __split_buffer:__cap <- 80
	@DEBUG_VALUE: __split_buffer:__start <- [DW_OP_constu 12, DW_OP_div, DW_OP_stack_value] $r5
	@DEBUG_VALUE: __split_buffer:this <- undef
	.loc	4 272 10                        @ AppData\Local\Keil_v5\ARM\ARMCLANG\bin\..\include\libcxx\new:272:10
	bl	_Znwj
.Ltmp20:
	.file	20 "C:\\Users\\antia" "AppData\\Local\\Keil_v5\\ARM\\ARMCLANG\\bin\\..\\include\\libcxx\\__memory\\uninitialized_algorithms.h"
	.loc	20 641 5                        @ AppData\Local\Keil_v5\ARM\ARMCLANG\bin\..\include\libcxx\__memory\uninitialized_algorithms.h:641:5
	mov	r1, r6
	mov	r2, r5
.Ltmp21:
	.loc	4 272 10                        @ AppData\Local\Keil_v5\ARM\ARMCLANG\bin\..\include\libcxx\new:272:10
	mov	r7, r0
.Ltmp22:
	@DEBUG_VALUE: __allocation <- [DW_OP_LLVM_fragment 32 32] 80
	@DEBUG_VALUE: __v <- [DW_OP_LLVM_fragment 32 32] $r7
	@DEBUG_VALUE: __uninitialized_allocator_relocate<std::__2::allocator<std::__2::basic_string<char, std::__2::char_traits<char>, std::__2::allocator<char> > >, std::__2::basic_string<char, std::__2::char_traits<char>, std::__2::allocator<char> > >:__last <- undef
	@DEBUG_VALUE: __v <- [DW_OP_LLVM_fragment 0 32] $r7
	@DEBUG_VALUE: __allocation <- [DW_OP_LLVM_fragment 0 32] $r7
	@DEBUG_VALUE: __swap_out_circular_buffer:__v <- undef
	.loc	18 357 32                       @ AppData\Local\Keil_v5\ARM\ARMCLANG\bin\..\include\libcxx\__split_buffer:357:32
	add.w	r9, r0, r5
.Ltmp23:
	@DEBUG_VALUE: __v <- [DW_OP_LLVM_fragment 64 32] $r9
	@DEBUG_VALUE: __v <- [DW_OP_LLVM_fragment 32 32] $r9
	.loc	18 358 32                       @ AppData\Local\Keil_v5\ARM\ARMCLANG\bin\..\include\libcxx\__split_buffer:358:32
	add.w	r10, r0, #960
.Ltmp24:
	@DEBUG_VALUE: __uninitialized_allocator_relocate<std::__2::allocator<std::__2::basic_string<char, std::__2::char_traits<char>, std::__2::allocator<char> > >, std::__2::basic_string<char, std::__2::char_traits<char>, std::__2::allocator<char> > >:__first <- $r6
	@DEBUG_VALUE: __uninitialized_allocator_relocate<std::__2::allocator<std::__2::basic_string<char, std::__2::char_traits<char>, std::__2::allocator<char> > >, std::__2::basic_string<char, std::__2::char_traits<char>, std::__2::allocator<char> > >:__alloc <- [DW_OP_plus_uconst 8, DW_OP_stack_value] $r8
	@DEBUG_VALUE: __uninitialized_allocator_relocate<std::__2::allocator<std::__2::basic_string<char, std::__2::char_traits<char>, std::__2::allocator<char> > >, std::__2::basic_string<char, std::__2::char_traits<char>, std::__2::allocator<char> > >:__result <- $r7
	@DEBUG_VALUE: __swap_out_circular_buffer:__new_begin <- $r7
	@DEBUG_VALUE: __swap_out_circular_buffer:this <- $r8
	@DEBUG_VALUE: __v <- [DW_OP_LLVM_fragment 96 32] $r10
	.loc	20 641 5                        @ AppData\Local\Keil_v5\ARM\ARMCLANG\bin\..\include\libcxx\__memory\uninitialized_algorithms.h:641:5
	bl	__aeabi_memcpy4
.Ltmp25:
	@DEBUG_VALUE: swap<std::__2::basic_string<char, std::__2::char_traits<char>, std::__2::allocator<char> > *>:__y <- undef
	@DEBUG_VALUE: swap<std::__2::basic_string<char, std::__2::char_traits<char>, std::__2::allocator<char> > *>:__y <- undef
	@DEBUG_VALUE: swap<std::__2::basic_string<char, std::__2::char_traits<char>, std::__2::allocator<char> > *>:__t <- $r6
	@DEBUG_VALUE: swap<std::__2::basic_string<char, std::__2::char_traits<char>, std::__2::allocator<char> > *>:__y <- undef
	@DEBUG_VALUE: swap<std::__2::basic_string<char, std::__2::char_traits<char>, std::__2::allocator<char> > *>:__x <- $r8
	@DEBUG_VALUE: __v <- [DW_OP_LLVM_fragment 64 32] $r6
	@DEBUG_VALUE: __v <- [DW_OP_LLVM_fragment 32 32] $r6
	@DEBUG_VALUE: __v <- [DW_OP_LLVM_fragment 0 32] $r6
	@DEBUG_VALUE: ~__split_buffer:this <- undef
	@DEBUG_VALUE: swap<std::__2::basic_string<char, std::__2::char_traits<char>, std::__2::allocator<char> > *>:__x <- [DW_OP_plus_uconst 4, DW_OP_stack_value] $r8
	@DEBUG_VALUE: swap<std::__2::basic_string<char, std::__2::char_traits<char>, std::__2::allocator<char> > *>:__t <- $r6
	@DEBUG_VALUE: swap<std::__2::basic_string<char, std::__2::char_traits<char>, std::__2::allocator<char> > *>:__t <- undef
	@DEBUG_VALUE: swap<std::__2::basic_string<char, std::__2::char_traits<char>, std::__2::allocator<char> > *>:__x <- [DW_OP_plus_uconst 8, DW_OP_stack_value] $r8
	@DEBUG_VALUE: __v <- [DW_OP_LLVM_fragment 96 32] undef
	.file	21 "C:\\Users\\antia" "AppData\\Local\\Keil_v5\\ARM\\ARMCLANG\\bin\\..\\include\\libcxx\\__utility\\swap.h"
	.loc	21 43 7                         @ AppData\Local\Keil_v5\ARM\ARMCLANG\bin\..\include\libcxx\__utility\swap.h:43:7
	strd	r7, r9, [r8]
.Ltmp26:
	.loc	21 43 7 is_stmt 0               @ AppData\Local\Keil_v5\ARM\ARMCLANG\bin\..\include\libcxx\__utility\swap.h:43:7
	str.w	r10, [r8, #8]
.Ltmp27:
	@DEBUG_VALUE: __v <- [DW_OP_LLVM_fragment 64 32] $r6
	@DEBUG_VALUE: __v <- [DW_OP_LLVM_fragment 32 32] $r6
	@DEBUG_VALUE: __v <- [DW_OP_LLVM_fragment 0 32] $r6
	@DEBUG_VALUE: __v <- [DW_OP_plus_uconst 8, DW_OP_stack_value, DW_OP_LLVM_fragment 128 32] $r8
	.loc	18 364 7 is_stmt 1              @ AppData\Local\Keil_v5\ARM\ARMCLANG\bin\..\include\libcxx\__split_buffer:364:7
	cbz	r6, .LBB0_8
.Ltmp28:
@ %bb.7:
	@DEBUG_VALUE: reserve:this <- $r8
	@DEBUG_VALUE: reserve:__n <- 80
	@DEBUG_VALUE: GetLabelsVector:labelsSz <- 80
	@DEBUG_VALUE: GetLabelsVector:labels <- $r8
	@DEBUG_VALUE: deallocate:__a <- undef
	@DEBUG_VALUE: deallocate:__p <- $r6
	@DEBUG_VALUE: deallocate:__n <- [DW_OP_constu 12, DW_OP_div, DW_OP_stack_value] $r4
	@DEBUG_VALUE: deallocate:this <- undef
	@DEBUG_VALUE: deallocate:__p <- $r6
	@DEBUG_VALUE: deallocate:__n <- [DW_OP_constu 12, DW_OP_div, DW_OP_stack_value] $r4
	@DEBUG_VALUE: __libcpp_deallocate:__ptr <- $r6
	@DEBUG_VALUE: __libcpp_deallocate:__size <- $r4
	@DEBUG_VALUE: __libcpp_deallocate:__align <- 4
	@DEBUG_VALUE: __do_deallocate_handle_size<>:__ptr <- $r6
	@DEBUG_VALUE: __do_deallocate_handle_size<>:__size <- $r4
	@DEBUG_VALUE: __libcpp_operator_delete<void *, unsigned int>:__args <- $r6
	@DEBUG_VALUE: __libcpp_operator_delete<void *, unsigned int>:__args <- $r4
	.loc	4 281 3                         @ AppData\Local\Keil_v5\ARM\ARMCLANG\bin\..\include\libcxx\new:281:3
	mov	r0, r6
	mov	r1, r4
	bl	_ZdlPvj
.Ltmp29:
	.loc	2 1552 25                       @ AppData\Local\Keil_v5\ARM\ARMCLANG\bin\..\include\libcxx\vector:1552:25
	ldr.w	r9, [r8, #4]
.Ltmp30:
.LBB0_8:
	@DEBUG_VALUE: GetLabelsVector:labelsSz <- 80
	@DEBUG_VALUE: GetLabelsVector:labels <- $r8
	.loc	2 0 25 is_stmt 0                @ AppData\Local\Keil_v5\ARM\ARMCLANG\bin\..\include\libcxx\vector:0:25
	movw	r6, :lower16:_ZL9labelsVec
	movw	r10, #65528
	movs	r5, #80
	movt	r6, :upper16:_ZL9labelsVec
	movt	r10, #32767
	.loc	1 103 5 is_stmt 1               @ ../Model/Labels.cpp:103:5
	str.w	r8, [sp]                        @ 4-byte Spill
	b	.LBB0_11
.Ltmp31:
	.loc	1 0 5 is_stmt 0                 @ :0:5
.Ltmp32:
	.p2align	2
.LBB0_9:                                @   in Loop: Header=BB0_11 Depth=1
	@DEBUG_VALUE: emplace_back<const char *&>:__end <- $r9
	@DEBUG_VALUE: emplace_back<const char *&>:this <- $r8
	@DEBUG_VALUE: i <- [DW_OP_consts 80, DW_OP_minus, DW_OP_consts 18446744073709551615, DW_OP_div, DW_OP_stack_value] $r5
	@DEBUG_VALUE: GetLabelsVector:labelsSz <- 80
	.loc	2 1557 13 is_stmt 1             @ AppData\Local\Keil_v5\ARM\ARMCLANG\bin\..\include\libcxx\vector:1557:13
	mov	r0, r8
	mov	r1, r6
	bl	_ZNSt3__26vectorINS_12basic_stringIcNS_11char_traitsIcEENS_9allocatorIcEEEENS4_IS6_EEE24__emplace_back_slow_pathIJRPKcEEEPS6_DpOT_
.Ltmp33:
	mov	r9, r0
.Ltmp34:
	@DEBUG_VALUE: emplace_back<const char *&>:__end <- $r9
.LBB0_10:                               @   in Loop: Header=BB0_11 Depth=1
	@DEBUG_VALUE: emplace_back<const char *&>:__end <- $r9
	@DEBUG_VALUE: i <- [DW_OP_consts 80, DW_OP_minus, DW_OP_consts 18446744073709551615, DW_OP_div, DW_OP_stack_value] $r5
	@DEBUG_VALUE: GetLabelsVector:labelsSz <- 80
	.loc	1 103 26                        @ ../Model/Labels.cpp:103:26
	subs	r5, #1
.Ltmp35:
	add.w	r6, r6, #4
.Ltmp36:
	.loc	2 1559 16                       @ AppData\Local\Keil_v5\ARM\ARMCLANG\bin\..\include\libcxx\vector:1559:16
	str.w	r9, [r8, #4]
.Ltmp37:
	@DEBUG_VALUE: emplace_back<const char *&>:__end <- $r9
	@DEBUG_VALUE: i <- [DW_OP_consts 80, DW_OP_minus, DW_OP_consts 18446744073709551615, DW_OP_div, DW_OP_consts 1, DW_OP_plus, DW_OP_stack_value] $r5
	.loc	1 103 5                         @ ../Model/Labels.cpp:103:5
	beq	.LBB0_18
.Ltmp38:
.LBB0_11:                               @ =>This Inner Loop Header: Depth=1
	@DEBUG_VALUE: GetLabelsVector:labelsSz <- 80
	@DEBUG_VALUE: i <- [DW_OP_consts 80, DW_OP_minus, DW_OP_consts 18446744073709551615, DW_OP_div, DW_OP_stack_value] $r5
	@DEBUG_VALUE: emplace_back<const char *&>:this <- $r8
	@DEBUG_VALUE: emplace_back<const char *&>:__args <- [DW_OP_LLVM_arg 0, DW_OP_consts 80, DW_OP_minus, DW_OP_consts 18446744073709551615, DW_OP_div, DW_OP_consts 4, DW_OP_mul, DW_OP_LLVM_arg 0, DW_OP_plus, DW_OP_stack_value] undef
	@DEBUG_VALUE: emplace_back<const char *&>:__end <- $r9
	.loc	2 1553 21                       @ AppData\Local\Keil_v5\ARM\ARMCLANG\bin\..\include\libcxx\vector:1553:21
	ldr.w	r0, [r8, #8]
.Ltmp39:
	.loc	2 1553 7 is_stmt 0              @ AppData\Local\Keil_v5\ARM\ARMCLANG\bin\..\include\libcxx\vector:1553:7
	cmp	r9, r0
	bhs	.LBB0_9
.Ltmp40:
@ %bb.12:                               @   in Loop: Header=BB0_11 Depth=1
	@DEBUG_VALUE: emplace_back<const char *&>:__end <- $r9
	@DEBUG_VALUE: emplace_back<const char *&>:this <- $r8
	@DEBUG_VALUE: i <- [DW_OP_consts 80, DW_OP_minus, DW_OP_consts 18446744073709551615, DW_OP_div, DW_OP_stack_value] $r5
	@DEBUG_VALUE: GetLabelsVector:labelsSz <- 80
	@DEBUG_VALUE: __construct_one_at_end<const char *&>:this <- $r8
	@DEBUG_VALUE: __construct_one_at_end<const char *&>:__args <- [DW_OP_LLVM_arg 0, DW_OP_consts 80, DW_OP_minus, DW_OP_consts 18446744073709551615, DW_OP_div, DW_OP_consts 4, DW_OP_mul, DW_OP_LLVM_arg 0, DW_OP_plus, DW_OP_stack_value] undef
	@DEBUG_VALUE: __construct_one_at_end<const char *&>:__tx <- [DW_OP_LLVM_fragment 0 32] $r8
	@DEBUG_VALUE: __construct_one_at_end<const char *&>:__tx <- [DW_OP_LLVM_fragment 32 32] $r9
	@DEBUG_VALUE: __construct_one_at_end<const char *&>:__tx <- [DW_OP_plus_uconst 12, DW_OP_stack_value, DW_OP_LLVM_fragment 64 32] $r9
	@DEBUG_VALUE: construct<std::__2::basic_string<char, std::__2::char_traits<char>, std::__2::allocator<char> >, const char *&, 0>:__a <- [DW_OP_plus_uconst 8, DW_OP_stack_value] $r8
	@DEBUG_VALUE: construct<std::__2::basic_string<char, std::__2::char_traits<char>, std::__2::allocator<char> >, const char *&, 0>:__p <- $r9
	@DEBUG_VALUE: construct<std::__2::basic_string<char, std::__2::char_traits<char>, std::__2::allocator<char> >, const char *&, 0>:__args <- [DW_OP_LLVM_arg 0, DW_OP_consts 80, DW_OP_minus, DW_OP_consts 18446744073709551615, DW_OP_div, DW_OP_consts 4, DW_OP_mul, DW_OP_LLVM_arg 0, DW_OP_plus, DW_OP_stack_value] undef
	@DEBUG_VALUE: construct<std::__2::basic_string<char, std::__2::char_traits<char>, std::__2::allocator<char> >, const char *&>:this <- [DW_OP_plus_uconst 8, DW_OP_stack_value] $r8
	@DEBUG_VALUE: construct<std::__2::basic_string<char, std::__2::char_traits<char>, std::__2::allocator<char> >, const char *&>:__p <- $r9
	@DEBUG_VALUE: construct<std::__2::basic_string<char, std::__2::char_traits<char>, std::__2::allocator<char> >, const char *&>:__args <- [DW_OP_LLVM_arg 0, DW_OP_consts 80, DW_OP_minus, DW_OP_consts 18446744073709551615, DW_OP_div, DW_OP_consts 4, DW_OP_mul, DW_OP_LLVM_arg 0, DW_OP_plus, DW_OP_stack_value] undef
	.loc	11 151 28 is_stmt 1             @ AppData\Local\Keil_v5\ARM\ARMCLANG\bin\..\include\libcxx\__memory\allocator.h:151:28
	ldr	r4, [r6]
.Ltmp41:
	@DEBUG_VALUE: basic_string<0>:this <- $r9
	@DEBUG_VALUE: __constexpr_strlen<char>:__str <- $r4
	@DEBUG_VALUE: length:__s <- $r4
	@DEBUG_VALUE: basic_string<0>:__s <- $r4
	.loc	17 64 10                        @ AppData\Local\Keil_v5\ARM\ARMCLANG\bin\..\include\libcxx\__string\constexpr_c_functions.h:64:10
	mov	r0, r4
	bl	strlen
.Ltmp42:
	@DEBUG_VALUE: __init:__s <- $r4
	@DEBUG_VALUE: __init:this <- $r9
	@DEBUG_VALUE: __init:__sz <- $r0
	.loc	5 2334 7                        @ AppData\Local\Keil_v5\ARM\ARMCLANG\bin\..\include\libcxx\string:2334:7
	cmp	r0, r10
	bhs	.LBB0_19
.Ltmp43:
@ %bb.13:                               @   in Loop: Header=BB0_11 Depth=1
	@DEBUG_VALUE: __init:__sz <- $r0
	@DEBUG_VALUE: __init:this <- $r9
	@DEBUG_VALUE: __init:__s <- $r4
	@DEBUG_VALUE: basic_string<0>:__s <- $r4
	@DEBUG_VALUE: basic_string<0>:this <- $r9
	@DEBUG_VALUE: construct<std::__2::basic_string<char, std::__2::char_traits<char>, std::__2::allocator<char> >, const char *&>:__p <- $r9
	@DEBUG_VALUE: construct<std::__2::basic_string<char, std::__2::char_traits<char>, std::__2::allocator<char> >, const char *&>:this <- [DW_OP_plus_uconst 8, DW_OP_stack_value] $r8
	@DEBUG_VALUE: construct<std::__2::basic_string<char, std::__2::char_traits<char>, std::__2::allocator<char> >, const char *&, 0>:__p <- $r9
	@DEBUG_VALUE: construct<std::__2::basic_string<char, std::__2::char_traits<char>, std::__2::allocator<char> >, const char *&, 0>:__a <- [DW_OP_plus_uconst 8, DW_OP_stack_value] $r8
	@DEBUG_VALUE: __construct_one_at_end<const char *&>:__tx <- [DW_OP_plus_uconst 12, DW_OP_stack_value, DW_OP_LLVM_fragment 64 32] $r9
	@DEBUG_VALUE: __construct_one_at_end<const char *&>:__tx <- [DW_OP_LLVM_fragment 32 32] $r9
	@DEBUG_VALUE: __construct_one_at_end<const char *&>:__tx <- [DW_OP_LLVM_fragment 0 32] $r8
	@DEBUG_VALUE: __construct_one_at_end<const char *&>:this <- $r8
	@DEBUG_VALUE: emplace_back<const char *&>:__end <- $r9
	@DEBUG_VALUE: emplace_back<const char *&>:this <- $r8
	@DEBUG_VALUE: i <- [DW_OP_consts 80, DW_OP_minus, DW_OP_consts 18446744073709551615, DW_OP_div, DW_OP_stack_value] $r5
	@DEBUG_VALUE: GetLabelsVector:labelsSz <- 80
	.loc	5 1062 0                        @ AppData\Local\Keil_v5\ARM\ARMCLANG\bin\..\include\libcxx\string:1062:0
	mov	r7, r0
.Ltmp44:
	@DEBUG_VALUE: __init:__sz <- $r7
	@DEBUG_VALUE: __fits_in_sso:__sz <- $r7
	.loc	5 2337 7                        @ AppData\Local\Keil_v5\ARM\ARMCLANG\bin\..\include\libcxx\string:2337:7
	cmp	r0, #11
	bhs	.LBB0_15
.Ltmp45:
@ %bb.14:                               @   in Loop: Header=BB0_11 Depth=1
	@DEBUG_VALUE: __init:__sz <- $r7
	@DEBUG_VALUE: __init:this <- $r9
	@DEBUG_VALUE: __init:__s <- $r4
	@DEBUG_VALUE: basic_string<0>:__s <- $r4
	@DEBUG_VALUE: basic_string<0>:this <- $r9
	@DEBUG_VALUE: construct<std::__2::basic_string<char, std::__2::char_traits<char>, std::__2::allocator<char> >, const char *&>:__p <- $r9
	@DEBUG_VALUE: construct<std::__2::basic_string<char, std::__2::char_traits<char>, std::__2::allocator<char> >, const char *&>:this <- [DW_OP_plus_uconst 8, DW_OP_stack_value] $r8
	@DEBUG_VALUE: construct<std::__2::basic_string<char, std::__2::char_traits<char>, std::__2::allocator<char> >, const char *&, 0>:__p <- $r9
	@DEBUG_VALUE: construct<std::__2::basic_string<char, std::__2::char_traits<char>, std::__2::allocator<char> >, const char *&, 0>:__a <- [DW_OP_plus_uconst 8, DW_OP_stack_value] $r8
	@DEBUG_VALUE: __construct_one_at_end<const char *&>:__tx <- [DW_OP_plus_uconst 12, DW_OP_stack_value, DW_OP_LLVM_fragment 64 32] $r9
	@DEBUG_VALUE: __construct_one_at_end<const char *&>:__tx <- [DW_OP_LLVM_fragment 32 32] $r9
	@DEBUG_VALUE: __construct_one_at_end<const char *&>:__tx <- [DW_OP_LLVM_fragment 0 32] $r8
	@DEBUG_VALUE: __construct_one_at_end<const char *&>:this <- $r8
	@DEBUG_VALUE: emplace_back<const char *&>:__end <- $r9
	@DEBUG_VALUE: emplace_back<const char *&>:this <- $r8
	@DEBUG_VALUE: i <- [DW_OP_consts 80, DW_OP_minus, DW_OP_consts 18446744073709551615, DW_OP_div, DW_OP_stack_value] $r5
	@DEBUG_VALUE: GetLabelsVector:labelsSz <- 80
	@DEBUG_VALUE: __set_short_size:this <- $r9
	@DEBUG_VALUE: __set_short_size:__s <- $r7
	.loc	5 0 7 is_stmt 0                 @ AppData\Local\Keil_v5\ARM\ARMCLANG\bin\..\include\libcxx\string:0:7
	mov	r11, r9
.Ltmp46:
	.loc	5 1957 33 is_stmt 1             @ AppData\Local\Keil_v5\ARM\ARMCLANG\bin\..\include\libcxx\string:1957:33
	strb.w	r7, [r9, #11]
.Ltmp47:
	@DEBUG_VALUE: __constexpr_memmove<char, const char, 0>:__count <- $r7
	@DEBUG_VALUE: __constexpr_memmove<char, const char, 0>:__n <- $r7
	@DEBUG_VALUE: __constexpr_memmove<char, const char, 0>:__src <- $r4
	@DEBUG_VALUE: copy:__n <- $r7
	@DEBUG_VALUE: copy:__s2 <- $r4
	@DEBUG_VALUE: __constexpr_memmove<char, const char, 0>:__dest <- $r9
	@DEBUG_VALUE: copy:__s1 <- $r9
	@DEBUG_VALUE: __init:__p <- $r9
	.loc	17 226 14                       @ AppData\Local\Keil_v5\ARM\ARMCLANG\bin\..\include\libcxx\__string\constexpr_c_functions.h:226:14
	cbnz	r7, .LBB0_16
	b	.LBB0_17
.Ltmp48:
	.loc	17 0 14 is_stmt 0               @ :0:14
.Ltmp49:
	.p2align	2
.LBB0_15:                               @   in Loop: Header=BB0_11 Depth=1
	@DEBUG_VALUE: __init:__sz <- $r7
	@DEBUG_VALUE: __init:this <- $r9
	@DEBUG_VALUE: __init:__s <- $r4
	@DEBUG_VALUE: basic_string<0>:__s <- $r4
	@DEBUG_VALUE: basic_string<0>:this <- $r9
	@DEBUG_VALUE: construct<std::__2::basic_string<char, std::__2::char_traits<char>, std::__2::allocator<char> >, const char *&>:__p <- $r9
	@DEBUG_VALUE: construct<std::__2::basic_string<char, std::__2::char_traits<char>, std::__2::allocator<char> >, const char *&>:this <- [DW_OP_plus_uconst 8, DW_OP_stack_value] $r8
	@DEBUG_VALUE: construct<std::__2::basic_string<char, std::__2::char_traits<char>, std::__2::allocator<char> >, const char *&, 0>:__p <- $r9
	@DEBUG_VALUE: construct<std::__2::basic_string<char, std::__2::char_traits<char>, std::__2::allocator<char> >, const char *&, 0>:__a <- [DW_OP_plus_uconst 8, DW_OP_stack_value] $r8
	@DEBUG_VALUE: __construct_one_at_end<const char *&>:__tx <- [DW_OP_plus_uconst 12, DW_OP_stack_value, DW_OP_LLVM_fragment 64 32] $r9
	@DEBUG_VALUE: __construct_one_at_end<const char *&>:__tx <- [DW_OP_LLVM_fragment 32 32] $r9
	@DEBUG_VALUE: __construct_one_at_end<const char *&>:__tx <- [DW_OP_LLVM_fragment 0 32] $r8
	@DEBUG_VALUE: __construct_one_at_end<const char *&>:this <- $r8
	@DEBUG_VALUE: emplace_back<const char *&>:__end <- $r9
	@DEBUG_VALUE: emplace_back<const char *&>:this <- $r8
	@DEBUG_VALUE: i <- [DW_OP_consts 80, DW_OP_minus, DW_OP_consts 18446744073709551615, DW_OP_div, DW_OP_stack_value] $r5
	@DEBUG_VALUE: GetLabelsVector:labelsSz <- 80
	@DEBUG_VALUE: __recommend:__s <- $r7
	.loc	5 2064 9 is_stmt 1              @ AppData\Local\Keil_v5\ARM\ARMCLANG\bin\..\include\libcxx\string:2064:9
	orr	r0, r7, #7
	mov	r8, r10
.Ltmp50:
	@DEBUG_VALUE: GetLabelsVector:labels <- [DW_OP_LLVM_entry_value 1] $r0
	.loc	5 2341 79                       @ AppData\Local\Keil_v5\ARM\ARMCLANG\bin\..\include\libcxx\string:2341:79
	add.w	r10, r0, #1
.Ltmp51:
	@DEBUG_VALUE: __libcpp_allocate:__align <- 1
	@DEBUG_VALUE: allocate:this <- $r9
	@DEBUG_VALUE: __allocate_at_least<std::__2::allocator<char> >:__alloc <- $r9
	@DEBUG_VALUE: __libcpp_operator_new<unsigned int>:__args <- $r10
	@DEBUG_VALUE: __libcpp_allocate:__size <- $r10
	@DEBUG_VALUE: allocate:__n <- $r10
	@DEBUG_VALUE: __allocate_at_least<std::__2::allocator<char> >:__n <- $r10
	.loc	4 272 10                        @ AppData\Local\Keil_v5\ARM\ARMCLANG\bin\..\include\libcxx\new:272:10
	mov	r0, r10
	bl	_Znwj
.Ltmp52:
	mov	r11, r0
.Ltmp53:
	@DEBUG_VALUE: __set_long_cap:__s <- $r10
	@DEBUG_VALUE: __set_long_cap:this <- $r9
	@DEBUG_VALUE: __allocation <- [DW_OP_LLVM_fragment 32 32] $r10
	@DEBUG_VALUE: __init:__p <- $r11
	@DEBUG_VALUE: __allocation <- [DW_OP_LLVM_fragment 0 32] $r11
	.loc	5 1981 33                       @ AppData\Local\Keil_v5\ARM\ARMCLANG\bin\..\include\libcxx\string:1981:33
	orr	r0, r10, #-2147483648
	mov	r10, r8
.Ltmp54:
	.loc	5 0 33 is_stmt 0                @ AppData\Local\Keil_v5\ARM\ARMCLANG\bin\..\include\libcxx\string:0:33
	ldr.w	r8, [sp]                        @ 4-byte Reload
.Ltmp55:
	@DEBUG_VALUE: __set_long_pointer:this <- $r9
	@DEBUG_VALUE: __set_long_pointer:__p <- $r11
	@DEBUG_VALUE: __set_long_size:__s <- $r7
	@DEBUG_VALUE: __set_long_size:this <- $r9
	.loc	5 1989 30 is_stmt 1             @ AppData\Local\Keil_v5\ARM\ARMCLANG\bin\..\include\libcxx\string:1989:30
	strd	r11, r7, [r9]
.Ltmp56:
	.loc	5 1981 33                       @ AppData\Local\Keil_v5\ARM\ARMCLANG\bin\..\include\libcxx\string:1981:33
	str.w	r0, [r9, #8]
.Ltmp57:
	@DEBUG_VALUE: __constexpr_memmove<char, const char, 0>:__count <- $r7
	@DEBUG_VALUE: __constexpr_memmove<char, const char, 0>:__n <- $r7
	@DEBUG_VALUE: __constexpr_memmove<char, const char, 0>:__src <- $r4
	@DEBUG_VALUE: copy:__n <- $r7
	@DEBUG_VALUE: copy:__s2 <- $r4
	@DEBUG_VALUE: __constexpr_memmove<char, const char, 0>:__dest <- $r11
	@DEBUG_VALUE: copy:__s1 <- $r11
.LBB0_16:                               @   in Loop: Header=BB0_11 Depth=1
	@DEBUG_VALUE: copy:__s2 <- $r4
	@DEBUG_VALUE: copy:__n <- $r7
	@DEBUG_VALUE: __constexpr_memmove<char, const char, 0>:__src <- $r4
	@DEBUG_VALUE: __constexpr_memmove<char, const char, 0>:__n <- $r7
	@DEBUG_VALUE: __constexpr_memmove<char, const char, 0>:__count <- $r7
	@DEBUG_VALUE: __init:__sz <- $r7
	@DEBUG_VALUE: __init:this <- $r9
	@DEBUG_VALUE: __init:__s <- $r4
	@DEBUG_VALUE: basic_string<0>:__s <- $r4
	@DEBUG_VALUE: basic_string<0>:this <- $r9
	@DEBUG_VALUE: construct<std::__2::basic_string<char, std::__2::char_traits<char>, std::__2::allocator<char> >, const char *&>:__p <- $r9
	@DEBUG_VALUE: construct<std::__2::basic_string<char, std::__2::char_traits<char>, std::__2::allocator<char> >, const char *&, 0>:__p <- $r9
	@DEBUG_VALUE: __construct_one_at_end<const char *&>:__tx <- [DW_OP_plus_uconst 12, DW_OP_stack_value, DW_OP_LLVM_fragment 64 32] $r9
	@DEBUG_VALUE: __construct_one_at_end<const char *&>:__tx <- [DW_OP_LLVM_fragment 32 32] $r9
	@DEBUG_VALUE: emplace_back<const char *&>:__end <- $r9
	@DEBUG_VALUE: i <- [DW_OP_consts 80, DW_OP_minus, DW_OP_consts 18446744073709551615, DW_OP_div, DW_OP_stack_value] $r5
	@DEBUG_VALUE: GetLabelsVector:labelsSz <- 80
	.loc	17 227 5                        @ AppData\Local\Keil_v5\ARM\ARMCLANG\bin\..\include\libcxx\__string\constexpr_c_functions.h:227:5
	mov	r0, r11
	mov	r1, r4
	mov	r2, r7
	bl	__aeabi_memmove
.Ltmp58:
.LBB0_17:                               @   in Loop: Header=BB0_11 Depth=1
	@DEBUG_VALUE: __init:__sz <- $r7
	@DEBUG_VALUE: __init:this <- $r9
	@DEBUG_VALUE: __init:__s <- $r4
	@DEBUG_VALUE: basic_string<0>:__s <- $r4
	@DEBUG_VALUE: basic_string<0>:this <- $r9
	@DEBUG_VALUE: construct<std::__2::basic_string<char, std::__2::char_traits<char>, std::__2::allocator<char> >, const char *&>:__p <- $r9
	@DEBUG_VALUE: construct<std::__2::basic_string<char, std::__2::char_traits<char>, std::__2::allocator<char> >, const char *&, 0>:__p <- $r9
	@DEBUG_VALUE: __construct_one_at_end<const char *&>:__tx <- [DW_OP_plus_uconst 12, DW_OP_stack_value, DW_OP_LLVM_fragment 64 32] $r9
	@DEBUG_VALUE: __construct_one_at_end<const char *&>:__tx <- [DW_OP_LLVM_fragment 32 32] $r9
	@DEBUG_VALUE: emplace_back<const char *&>:__end <- $r9
	@DEBUG_VALUE: i <- [DW_OP_consts 80, DW_OP_minus, DW_OP_consts 18446744073709551615, DW_OP_div, DW_OP_stack_value] $r5
	@DEBUG_VALUE: GetLabelsVector:labelsSz <- 80
	@DEBUG_VALUE: assign:__c1 <- [DW_OP_LLVM_arg 0, DW_OP_LLVM_arg 1, DW_OP_plus, DW_OP_stack_value] $r11, $r7
	@DEBUG_VALUE: assign:__c2 <- undef
	.loc	9 92 10                         @ AppData\Local\Keil_v5\ARM\ARMCLANG\bin\..\include\libcxx\__string\char_traits.h:92:10
	movs	r0, #0
.Ltmp59:
	.loc	2 961 5                         @ AppData\Local\Keil_v5\ARM\ARMCLANG\bin\..\include\libcxx\vector:961:5
	add.w	r9, r9, #12
.Ltmp60:
	@DEBUG_VALUE: __construct_one_at_end<const char *&>:__tx <- [DW_OP_LLVM_fragment 32 32] $r9
	@DEBUG_VALUE: emplace_back<const char *&>:__end <- $r9
	.loc	9 92 10                         @ AppData\Local\Keil_v5\ARM\ARMCLANG\bin\..\include\libcxx\__string\char_traits.h:92:10
	strb.w	r0, [r11, r7]
.Ltmp61:
	.loc	2 1556 3                        @ AppData\Local\Keil_v5\ARM\ARMCLANG\bin\..\include\libcxx\vector:1556:3
	b	.LBB0_10
.Ltmp62:
.LBB0_18:
	@DEBUG_VALUE: GetLabelsVector:labelsSz <- 80
	.loc	1 108 5                         @ ../Model/Labels.cpp:108:5
	movs	r0, #1
	.loc	1 108 5 epilogue_begin is_stmt 0 @ ../Model/Labels.cpp:108:5
	add	sp, #4
	pop.w	{r4, r5, r6, r7, r8, r9, r10, r11, pc}
.Ltmp63:
.LBB0_19:
	@DEBUG_VALUE: __init:__sz <- $r0
	@DEBUG_VALUE: __init:this <- $r9
	@DEBUG_VALUE: __init:__s <- $r4
	@DEBUG_VALUE: basic_string<0>:__s <- $r4
	@DEBUG_VALUE: basic_string<0>:this <- $r9
	@DEBUG_VALUE: construct<std::__2::basic_string<char, std::__2::char_traits<char>, std::__2::allocator<char> >, const char *&>:__p <- $r9
	@DEBUG_VALUE: construct<std::__2::basic_string<char, std::__2::char_traits<char>, std::__2::allocator<char> >, const char *&>:this <- [DW_OP_plus_uconst 8, DW_OP_stack_value] $r8
	@DEBUG_VALUE: construct<std::__2::basic_string<char, std::__2::char_traits<char>, std::__2::allocator<char> >, const char *&, 0>:__p <- $r9
	@DEBUG_VALUE: construct<std::__2::basic_string<char, std::__2::char_traits<char>, std::__2::allocator<char> >, const char *&, 0>:__a <- [DW_OP_plus_uconst 8, DW_OP_stack_value] $r8
	@DEBUG_VALUE: __construct_one_at_end<const char *&>:__tx <- [DW_OP_plus_uconst 12, DW_OP_stack_value, DW_OP_LLVM_fragment 64 32] $r9
	@DEBUG_VALUE: __construct_one_at_end<const char *&>:__tx <- [DW_OP_LLVM_fragment 32 32] $r9
	@DEBUG_VALUE: __construct_one_at_end<const char *&>:__tx <- [DW_OP_LLVM_fragment 0 32] $r8
	@DEBUG_VALUE: __construct_one_at_end<const char *&>:this <- $r8
	@DEBUG_VALUE: emplace_back<const char *&>:__end <- $r9
	@DEBUG_VALUE: emplace_back<const char *&>:this <- $r8
	@DEBUG_VALUE: i <- [DW_OP_consts 80, DW_OP_minus, DW_OP_consts 18446744073709551615, DW_OP_div, DW_OP_stack_value] $r5
	@DEBUG_VALUE: GetLabelsVector:labelsSz <- 80
	.loc	5 2335 5 is_stmt 1              @ AppData\Local\Keil_v5\ARM\ARMCLANG\bin\..\include\libcxx\string:2335:5
	mov	r0, r9
.Ltmp64:
	bl	_ZNKSt3__212basic_stringIcNS_11char_traitsIcEENS_9allocatorIcEEE20__throw_length_errorB8nn200000Ev
.Ltmp65:
.Lfunc_end0:
	.size	_Z15GetLabelsVectorRNSt3__26vectorINS_12basic_stringIcNS_11char_traitsIcEENS_9allocatorIcEEEENS4_IS6_EEEE, .Lfunc_end0-_Z15GetLabelsVectorRNSt3__26vectorINS_12basic_stringIcNS_11char_traitsIcEENS_9allocatorIcEEEENS4_IS6_EEEE
	.cfi_endproc
	.file	22 "C:\\Users\\antia" "AppData\\Local\\Keil_v5\\ARM\\ARMCLANG\\bin\\..\\include\\libcxx\\__memory\\allocate_at_least.h"
	.file	23 "C:\\Users\\antia" "AppData\\Local\\Keil_v5\\ARM\\ARMCLANG\\bin\\..\\include\\libcxx\\__type_traits\\enable_if.h"
	.cantunwind
	.fnend
                                        @ -- End function
	.section	.text._ZNKSt3__26vectorINS_12basic_stringIcNS_11char_traitsIcEENS_9allocatorIcEEEENS4_IS6_EEE20__throw_length_errorB8nn200000Ev,"axG",%progbits,_ZNKSt3__26vectorINS_12basic_stringIcNS_11char_traitsIcEENS_9allocatorIcEEEENS4_IS6_EEE20__throw_length_errorB8nn200000Ev,comdat
	.hidden	_ZNKSt3__26vectorINS_12basic_stringIcNS_11char_traitsIcEENS_9allocatorIcEEEENS4_IS6_EEE20__throw_length_errorB8nn200000Ev @ -- Begin function _ZNKSt3__26vectorINS_12basic_stringIcNS_11char_traitsIcEENS_9allocatorIcEEEENS4_IS6_EEE20__throw_length_errorB8nn200000Ev
	.weak	_ZNKSt3__26vectorINS_12basic_stringIcNS_11char_traitsIcEENS_9allocatorIcEEEENS4_IS6_EEE20__throw_length_errorB8nn200000Ev
	.p2align	2
	.type	_ZNKSt3__26vectorINS_12basic_stringIcNS_11char_traitsIcEENS_9allocatorIcEEEENS4_IS6_EEE20__throw_length_errorB8nn200000Ev,%function
	.code	16                              @ @_ZNKSt3__26vectorINS_12basic_stringIcNS_11char_traitsIcEENS_9allocatorIcEEEENS4_IS6_EEE20__throw_length_errorB8nn200000Ev
	.thumb_func
_ZNKSt3__26vectorINS_12basic_stringIcNS_11char_traitsIcEENS_9allocatorIcEEEENS4_IS6_EEE20__throw_length_errorB8nn200000Ev:
.Lfunc_begin1:
	.fnstart
	.cfi_startproc
@ %bb.0:
	@DEBUG_VALUE: __throw_length_error:this <- $r0
	.loc	2 998 78 prologue_end           @ AppData\Local\Keil_v5\ARM\ARMCLANG\bin\..\include\libcxx\vector:998:78
	adr	r0, .LCPI1_0
.Ltmp66:
	@DEBUG_VALUE: __throw_length_error:this <- [DW_OP_LLVM_entry_value 1] $r0
	bl	_ZNSt3__220__throw_length_errorB8nn200000EPKc
.Ltmp67:
	.loc	2 0 78 is_stmt 0                @ :0:78
.Ltmp68:
	.p2align	2
@ %bb.1:
.LCPI1_0:
.L.str.80:
	.asciz	"vector\000"
.Lfunc_end1:
	.size	_ZNKSt3__26vectorINS_12basic_stringIcNS_11char_traitsIcEENS_9allocatorIcEEEENS4_IS6_EEE20__throw_length_errorB8nn200000Ev, .Lfunc_end1-_ZNKSt3__26vectorINS_12basic_stringIcNS_11char_traitsIcEENS_9allocatorIcEEEENS4_IS6_EEE20__throw_length_errorB8nn200000Ev
	.cfi_endproc
	.cantunwind
	.fnend
                                        @ -- End function
	.section	.text._ZNSt3__220__throw_length_errorB8nn200000EPKc,"axG",%progbits,_ZNSt3__220__throw_length_errorB8nn200000EPKc,comdat
	.hidden	_ZNSt3__220__throw_length_errorB8nn200000EPKc @ -- Begin function _ZNSt3__220__throw_length_errorB8nn200000EPKc
	.weak	_ZNSt3__220__throw_length_errorB8nn200000EPKc
	.p2align	2
	.type	_ZNSt3__220__throw_length_errorB8nn200000EPKc,%function
	.code	16                              @ @_ZNSt3__220__throw_length_errorB8nn200000EPKc
	.thumb_func
_ZNSt3__220__throw_length_errorB8nn200000EPKc:
.Lfunc_begin2:
	.loc	3 238 0 is_stmt 1               @ AppData\Local\Keil_v5\ARM\ARMCLANG\bin\..\include\libcxx\stdexcept:238:0
	.fnstart
	.cfi_startproc
@ %bb.0:
	@DEBUG_VALUE: __throw_length_error:__msg <- $r0
	mov	r1, r0
.Ltmp69:
	@DEBUG_VALUE: __throw_length_error:__msg <- $r1
	.loc	3 242 3 prologue_end            @ AppData\Local\Keil_v5\ARM\ARMCLANG\bin\..\include\libcxx\stdexcept:242:3
	movw	r0, :lower16:.L.str.81
	movt	r0, :upper16:.L.str.81
	bl	_ZNSt3__222__libcpp_verbose_abortEPKcz
.Ltmp70:
.Lfunc_end2:
	.size	_ZNSt3__220__throw_length_errorB8nn200000EPKc, .Lfunc_end2-_ZNSt3__220__throw_length_errorB8nn200000EPKc
	.cfi_endproc
	.cantunwind
	.fnend
                                        @ -- End function
	.section	.text._ZSt28__throw_bad_array_new_lengthB8nn200000v,"axG",%progbits,_ZSt28__throw_bad_array_new_lengthB8nn200000v,comdat
	.hidden	_ZSt28__throw_bad_array_new_lengthB8nn200000v @ -- Begin function _ZSt28__throw_bad_array_new_lengthB8nn200000v
	.weak	_ZSt28__throw_bad_array_new_lengthB8nn200000v
	.p2align	2
	.type	_ZSt28__throw_bad_array_new_lengthB8nn200000v,%function
	.code	16                              @ @_ZSt28__throw_bad_array_new_lengthB8nn200000v
	.thumb_func
_ZSt28__throw_bad_array_new_lengthB8nn200000v:
.Lfunc_begin3:
	.fnstart
	.cfi_startproc
@ %bb.0:
	.loc	4 182 3 prologue_end            @ AppData\Local\Keil_v5\ARM\ARMCLANG\bin\..\include\libcxx\new:182:3
	adr	r0, .LCPI3_0
	bl	_ZNSt3__222__libcpp_verbose_abortEPKcz
.Ltmp71:
	.loc	4 0 3 is_stmt 0                 @ :0:3
.Ltmp72:
	.p2align	2
@ %bb.1:
.LCPI3_0:
.L.str.82:
	.asciz	"bad_array_new_length was thrown in -fno-exceptions mode"
.Lfunc_end3:
	.size	_ZSt28__throw_bad_array_new_lengthB8nn200000v, .Lfunc_end3-_ZSt28__throw_bad_array_new_lengthB8nn200000v
	.cfi_endproc
	.cantunwind
	.fnend
                                        @ -- End function
	.section	.text._ZNSt3__26vectorINS_12basic_stringIcNS_11char_traitsIcEENS_9allocatorIcEEEENS4_IS6_EEE24__emplace_back_slow_pathIJRPKcEEEPS6_DpOT_,"axG",%progbits,_ZNSt3__26vectorINS_12basic_stringIcNS_11char_traitsIcEENS_9allocatorIcEEEENS4_IS6_EEE24__emplace_back_slow_pathIJRPKcEEEPS6_DpOT_,comdat
	.hidden	_ZNSt3__26vectorINS_12basic_stringIcNS_11char_traitsIcEENS_9allocatorIcEEEENS4_IS6_EEE24__emplace_back_slow_pathIJRPKcEEEPS6_DpOT_ @ -- Begin function _ZNSt3__26vectorINS_12basic_stringIcNS_11char_traitsIcEENS_9allocatorIcEEEENS4_IS6_EEE24__emplace_back_slow_pathIJRPKcEEEPS6_DpOT_
	.weak	_ZNSt3__26vectorINS_12basic_stringIcNS_11char_traitsIcEENS_9allocatorIcEEEENS4_IS6_EEE24__emplace_back_slow_pathIJRPKcEEEPS6_DpOT_
	.p2align	2
	.type	_ZNSt3__26vectorINS_12basic_stringIcNS_11char_traitsIcEENS_9allocatorIcEEEENS4_IS6_EEE24__emplace_back_slow_pathIJRPKcEEEPS6_DpOT_,%function
	.code	16                              @ @_ZNSt3__26vectorINS_12basic_stringIcNS_11char_traitsIcEENS_9allocatorIcEEEENS4_IS6_EEE24__emplace_back_slow_pathIJRPKcEEEPS6_DpOT_
	.thumb_func
_ZNSt3__26vectorINS_12basic_stringIcNS_11char_traitsIcEENS_9allocatorIcEEEENS4_IS6_EEE24__emplace_back_slow_pathIJRPKcEEEPS6_DpOT_:
.Lfunc_begin4:
	.loc	2 1533 0 is_stmt 1              @ AppData\Local\Keil_v5\ARM\ARMCLANG\bin\..\include\libcxx\vector:1533:0
	.fnstart
	.cfi_startproc
@ %bb.0:
	@DEBUG_VALUE: __emplace_back_slow_path<const char *&>:this <- $r0
	@DEBUG_VALUE: __emplace_back_slow_path<const char *&>:__args <- $r1
	.save	{r4, r5, r6, r7, r8, r9, r10, r11, lr}
	push.w	{r4, r5, r6, r7, r8, r9, r10, r11, lr}
	.cfi_def_cfa_offset 36
	.cfi_offset lr, -4
	.cfi_offset r11, -8
	.cfi_offset r10, -12
	.cfi_offset r9, -16
	.cfi_offset r8, -20
	.cfi_offset r7, -24
	.cfi_offset r6, -28
	.cfi_offset r5, -32
	.cfi_offset r4, -36
	.pad	#4
	sub	sp, #4
	.cfi_def_cfa_offset 40
	mov	r11, r0
.Ltmp73:
	@DEBUG_VALUE: __emplace_back_slow_path<const char *&>:this <- $r11
	.loc	2 634 56 prologue_end           @ AppData\Local\Keil_v5\ARM\ARMCLANG\bin\..\include\libcxx\vector:634:56
	ldrd	r3, r0, [r0]
	movw	r7, #43691
	movt	r7, #43690
	.loc	2 634 48 is_stmt 0              @ AppData\Local\Keil_v5\ARM\ARMCLANG\bin\..\include\libcxx\vector:634:48
	subs	r0, r0, r3
	asrs	r0, r0, #2
	mul	r5, r0, r7
	movw	r0, #21845
	movt	r0, #5461
.Ltmp74:
	@DEBUG_VALUE: size:this <- $r11
	@DEBUG_VALUE: __emplace_back_slow_path<const char *&>:__a <- [DW_OP_plus_uconst 8, DW_OP_stack_value] $r11
	.loc	2 1535 70 is_stmt 1             @ AppData\Local\Keil_v5\ARM\ARMCLANG\bin\..\include\libcxx\vector:1535:70
	adds	r2, r5, #1
.Ltmp75:
	@DEBUG_VALUE: __recommend:__ms <- 357913941
	@DEBUG_VALUE: __recommend:this <- $r11
	@DEBUG_VALUE: __recommend:__new_size <- $r2
	.loc	2 1114 7                        @ AppData\Local\Keil_v5\ARM\ARMCLANG\bin\..\include\libcxx\vector:1114:7
	cmp	r2, r0
	@DEBUG_VALUE: __emplace_back_slow_path<const char *&>:__args <- $r1
	bhi	.LBB4_13
.Ltmp76:
@ %bb.1:
	@DEBUG_VALUE: __recommend:__new_size <- $r2
	@DEBUG_VALUE: __recommend:this <- $r11
	@DEBUG_VALUE: __recommend:__ms <- 357913941
	@DEBUG_VALUE: __emplace_back_slow_path<const char *&>:__a <- [DW_OP_plus_uconst 8, DW_OP_stack_value] $r11
	@DEBUG_VALUE: __emplace_back_slow_path<const char *&>:this <- $r11
	@DEBUG_VALUE: __emplace_back_slow_path<const char *&>:__args <- $r1
	.loc	2 0 7 is_stmt 0                 @ AppData\Local\Keil_v5\ARM\ARMCLANG\bin\..\include\libcxx\vector:0:7
	mov	r6, r1
.Ltmp77:
	@DEBUG_VALUE: __emplace_back_slow_path<const char *&>:__args <- $r6
	@DEBUG_VALUE: __emplace_back_slow_path<const char *&>:__args <- $r6
	@DEBUG_VALUE: capacity:this <- $r11
	@DEBUG_VALUE: __end_cap:this <- $r11
	.loc	2 637 35 is_stmt 1              @ AppData\Local\Keil_v5\ARM\ARMCLANG\bin\..\include\libcxx\vector:637:35
	ldr.w	r1, [r11, #8]
	.loc	2 637 47 is_stmt 0              @ AppData\Local\Keil_v5\ARM\ARMCLANG\bin\..\include\libcxx\vector:637:47
	subs	r1, r1, r3
	movw	r3, #43690
	asrs	r1, r1, #2
	muls	r1, r7, r1
.Ltmp78:
	@DEBUG_VALUE: __recommend:__cap <- $r1
	.loc	2 0 47                          @ AppData\Local\Keil_v5\ARM\ARMCLANG\bin\..\include\libcxx\vector:0:47
	movt	r3, #2730
.Ltmp79:
	.loc	2 1117 7 is_stmt 1              @ AppData\Local\Keil_v5\ARM\ARMCLANG\bin\..\include\libcxx\vector:1117:7
	cmp.w	r2, r1, lsl #1
	it	lo
	lsllo	r2, r1, #1
.Ltmp80:
	cmp	r1, r3
	csel	r4, r2, r0, lo
.Ltmp81:
	@DEBUG_VALUE: __emplace_back_slow_path<const char *&>:__v <- [DW_OP_plus_uconst 8, DW_OP_stack_value, DW_OP_LLVM_fragment 128 32] $r11
	@DEBUG_VALUE: __emplace_back_slow_path<const char *&>:__v <- [DW_OP_LLVM_fragment 96 32] 0
	@DEBUG_VALUE: __split_buffer:__a <- [DW_OP_plus_uconst 8, DW_OP_stack_value] $r11
	@DEBUG_VALUE: __split_buffer:__start <- $r5
	@DEBUG_VALUE: __split_buffer:this <- undef
	@DEBUG_VALUE: size:this <- $r11
	@DEBUG_VALUE: __split_buffer:__cap <- $r4
	.loc	18 350 7                        @ AppData\Local\Keil_v5\ARM\ARMCLANG\bin\..\include\libcxx\__split_buffer:350:7
	cbz	r4, .LBB4_4
.Ltmp82:
@ %bb.2:
	@DEBUG_VALUE: __split_buffer:__cap <- $r4
	@DEBUG_VALUE: __split_buffer:__start <- $r5
	@DEBUG_VALUE: __split_buffer:__a <- [DW_OP_plus_uconst 8, DW_OP_stack_value] $r11
	@DEBUG_VALUE: __emplace_back_slow_path<const char *&>:__v <- [DW_OP_LLVM_fragment 96 32] 0
	@DEBUG_VALUE: __emplace_back_slow_path<const char *&>:__v <- [DW_OP_plus_uconst 8, DW_OP_stack_value, DW_OP_LLVM_fragment 128 32] $r11
	@DEBUG_VALUE: __emplace_back_slow_path<const char *&>:__args <- $r6
	@DEBUG_VALUE: __emplace_back_slow_path<const char *&>:__a <- [DW_OP_plus_uconst 8, DW_OP_stack_value] $r11
	@DEBUG_VALUE: __emplace_back_slow_path<const char *&>:this <- $r11
	@DEBUG_VALUE: __allocate_at_least<std::__2::allocator<std::__2::basic_string<char, std::__2::char_traits<char>, std::__2::allocator<char> > > >:__alloc <- undef
	@DEBUG_VALUE: __allocate_at_least<std::__2::allocator<std::__2::basic_string<char, std::__2::char_traits<char>, std::__2::allocator<char> > > >:__n <- $r4
	@DEBUG_VALUE: allocate:this <- undef
	@DEBUG_VALUE: allocate:__n <- $r4
	.loc	11 98 9                         @ AppData\Local\Keil_v5\ARM\ARMCLANG\bin\..\include\libcxx\__memory\allocator.h:98:9
	cmp	r4, r0
	bhi	.LBB4_15
.Ltmp83:
@ %bb.3:
	@DEBUG_VALUE: allocate:__n <- $r4
	@DEBUG_VALUE: __allocate_at_least<std::__2::allocator<std::__2::basic_string<char, std::__2::char_traits<char>, std::__2::allocator<char> > > >:__n <- $r4
	@DEBUG_VALUE: __split_buffer:__cap <- $r4
	@DEBUG_VALUE: __split_buffer:__start <- $r5
	@DEBUG_VALUE: __split_buffer:__a <- [DW_OP_plus_uconst 8, DW_OP_stack_value] $r11
	@DEBUG_VALUE: __emplace_back_slow_path<const char *&>:__v <- [DW_OP_LLVM_fragment 96 32] 0
	@DEBUG_VALUE: __emplace_back_slow_path<const char *&>:__v <- [DW_OP_plus_uconst 8, DW_OP_stack_value, DW_OP_LLVM_fragment 128 32] $r11
	@DEBUG_VALUE: __emplace_back_slow_path<const char *&>:__args <- $r6
	@DEBUG_VALUE: __emplace_back_slow_path<const char *&>:__a <- [DW_OP_plus_uconst 8, DW_OP_stack_value] $r11
	@DEBUG_VALUE: __emplace_back_slow_path<const char *&>:this <- $r11
	.loc	11 103 59                       @ AppData\Local\Keil_v5\ARM\ARMCLANG\bin\..\include\libcxx\__memory\allocator.h:103:59
	add.w	r0, r4, r4, lsl #1
	lsls	r0, r0, #2
.Ltmp84:
	@DEBUG_VALUE: __libcpp_allocate:__align <- 4
	@DEBUG_VALUE: __libcpp_operator_new<unsigned int>:__args <- $r0
	@DEBUG_VALUE: __libcpp_allocate:__size <- $r0
	.loc	4 272 10                        @ AppData\Local\Keil_v5\ARM\ARMCLANG\bin\..\include\libcxx\new:272:10
	bl	_Znwj
.Ltmp85:
	mov	r7, r0
.Ltmp86:
	@DEBUG_VALUE: __allocation <- [DW_OP_LLVM_fragment 32 32] $r4
	@DEBUG_VALUE: __allocation <- [DW_OP_LLVM_fragment 0 32] $r7
	@DEBUG_VALUE: __split_buffer:__cap <- $r4
	.loc	4 0 10 is_stmt 0                @ AppData\Local\Keil_v5\ARM\ARMCLANG\bin\..\include\libcxx\new:0:10
	b	.LBB4_5
.Ltmp87:
.LBB4_4:
	@DEBUG_VALUE: __split_buffer:__cap <- $r4
	@DEBUG_VALUE: size:this <- $r11
	@DEBUG_VALUE: __split_buffer:__start <- $r5
	@DEBUG_VALUE: __split_buffer:__a <- [DW_OP_plus_uconst 8, DW_OP_stack_value] $r11
	@DEBUG_VALUE: __emplace_back_slow_path<const char *&>:__v <- [DW_OP_LLVM_fragment 96 32] 0
	@DEBUG_VALUE: __emplace_back_slow_path<const char *&>:__v <- [DW_OP_plus_uconst 8, DW_OP_stack_value, DW_OP_LLVM_fragment 128 32] $r11
	@DEBUG_VALUE: __recommend:__cap <- $r1
	@DEBUG_VALUE: __end_cap:this <- $r11
	@DEBUG_VALUE: capacity:this <- $r11
	@DEBUG_VALUE: __emplace_back_slow_path<const char *&>:__args <- $r6
	@DEBUG_VALUE: __recommend:this <- $r11
	@DEBUG_VALUE: __recommend:__ms <- 357913941
	@DEBUG_VALUE: __emplace_back_slow_path<const char *&>:__a <- [DW_OP_plus_uconst 8, DW_OP_stack_value] $r11
	@DEBUG_VALUE: __emplace_back_slow_path<const char *&>:this <- $r11
	movs	r7, #0
.Ltmp88:
.LBB4_5:
	@DEBUG_VALUE: __split_buffer:__cap <- $r4
	@DEBUG_VALUE: __split_buffer:__start <- $r5
	@DEBUG_VALUE: __split_buffer:__a <- [DW_OP_plus_uconst 8, DW_OP_stack_value] $r11
	@DEBUG_VALUE: __emplace_back_slow_path<const char *&>:__v <- [DW_OP_LLVM_fragment 96 32] 0
	@DEBUG_VALUE: __emplace_back_slow_path<const char *&>:__v <- [DW_OP_plus_uconst 8, DW_OP_stack_value, DW_OP_LLVM_fragment 128 32] $r11
	@DEBUG_VALUE: __emplace_back_slow_path<const char *&>:__args <- $r6
	@DEBUG_VALUE: __emplace_back_slow_path<const char *&>:__a <- [DW_OP_plus_uconst 8, DW_OP_stack_value] $r11
	@DEBUG_VALUE: __emplace_back_slow_path<const char *&>:this <- $r11
	@DEBUG_VALUE: __split_buffer:__cap <- $r4
	@DEBUG_VALUE: __emplace_back_slow_path<const char *&>:__v <- [DW_OP_LLVM_fragment 0 32] $r7
	.loc	18 357 32 is_stmt 1             @ AppData\Local\Keil_v5\ARM\ARMCLANG\bin\..\include\libcxx\__split_buffer:357:32
	add.w	r0, r5, r5, lsl #1
.Ltmp89:
	.loc	11 151 28                       @ AppData\Local\Keil_v5\ARM\ARMCLANG\bin\..\include\libcxx\__memory\allocator.h:151:28
	ldr.w	r8, [r6]
.Ltmp90:
	@DEBUG_VALUE: __constexpr_strlen<char>:__str <- $r8
	@DEBUG_VALUE: length:__s <- $r8
	@DEBUG_VALUE: basic_string<0>:__s <- $r8
	@DEBUG_VALUE: basic_string<0>:this <- $r5
	.loc	18 357 32                       @ AppData\Local\Keil_v5\ARM\ARMCLANG\bin\..\include\libcxx\__split_buffer:357:32
	add.w	r5, r7, r0, lsl #2
.Ltmp91:
	@DEBUG_VALUE: construct<std::__2::basic_string<char, std::__2::char_traits<char>, std::__2::allocator<char> >, const char *&>:__args <- $r6
	@DEBUG_VALUE: construct<std::__2::basic_string<char, std::__2::char_traits<char>, std::__2::allocator<char> >, const char *&>:this <- [DW_OP_plus_uconst 8, DW_OP_stack_value] $r11
	@DEBUG_VALUE: construct<std::__2::basic_string<char, std::__2::char_traits<char>, std::__2::allocator<char> >, const char *&, 0>:__args <- $r6
	@DEBUG_VALUE: construct<std::__2::basic_string<char, std::__2::char_traits<char>, std::__2::allocator<char> >, const char *&, 0>:__a <- [DW_OP_plus_uconst 8, DW_OP_stack_value] $r11
	@DEBUG_VALUE: construct<std::__2::basic_string<char, std::__2::char_traits<char>, std::__2::allocator<char> >, const char *&>:__p <- $r5
	@DEBUG_VALUE: construct<std::__2::basic_string<char, std::__2::char_traits<char>, std::__2::allocator<char> >, const char *&, 0>:__p <- $r5
	@DEBUG_VALUE: __emplace_back_slow_path<const char *&>:__v <- [DW_OP_LLVM_fragment 32 32] $r5
	@DEBUG_VALUE: __emplace_back_slow_path<const char *&>:__v <- [DW_OP_LLVM_fragment 64 32] $r5
	@DEBUG_VALUE: __emplace_back_slow_path<const char *&>:__v <- [DW_OP_LLVM_fragment 96 32] undef
	.loc	17 64 10                        @ AppData\Local\Keil_v5\ARM\ARMCLANG\bin\..\include\libcxx\__string\constexpr_c_functions.h:64:10
	mov	r0, r8
	bl	strlen
.Ltmp92:
	mov	r6, r0
.Ltmp93:
	.loc	17 0 10 is_stmt 0               @ AppData\Local\Keil_v5\ARM\ARMCLANG\bin\..\include\libcxx\__string\constexpr_c_functions.h:0:10
	movw	r0, #65528
	movt	r0, #32767
.Ltmp94:
	@DEBUG_VALUE: __init:__s <- $r8
	@DEBUG_VALUE: __init:__sz <- $r6
	@DEBUG_VALUE: __init:this <- $r5
	.loc	5 2334 7 is_stmt 1              @ AppData\Local\Keil_v5\ARM\ARMCLANG\bin\..\include\libcxx\string:2334:7
	cmp	r6, r0
	bhs	.LBB4_14
.Ltmp95:
@ %bb.6:
	@DEBUG_VALUE: __init:this <- $r5
	@DEBUG_VALUE: __init:__sz <- $r6
	@DEBUG_VALUE: __init:__s <- $r8
	@DEBUG_VALUE: __emplace_back_slow_path<const char *&>:__v <- [DW_OP_LLVM_fragment 64 32] $r5
	@DEBUG_VALUE: __emplace_back_slow_path<const char *&>:__v <- [DW_OP_LLVM_fragment 32 32] $r5
	@DEBUG_VALUE: construct<std::__2::basic_string<char, std::__2::char_traits<char>, std::__2::allocator<char> >, const char *&, 0>:__p <- $r5
	@DEBUG_VALUE: construct<std::__2::basic_string<char, std::__2::char_traits<char>, std::__2::allocator<char> >, const char *&>:__p <- $r5
	@DEBUG_VALUE: construct<std::__2::basic_string<char, std::__2::char_traits<char>, std::__2::allocator<char> >, const char *&, 0>:__a <- [DW_OP_plus_uconst 8, DW_OP_stack_value] $r11
	@DEBUG_VALUE: construct<std::__2::basic_string<char, std::__2::char_traits<char>, std::__2::allocator<char> >, const char *&>:this <- [DW_OP_plus_uconst 8, DW_OP_stack_value] $r11
	@DEBUG_VALUE: basic_string<0>:__s <- $r8
	@DEBUG_VALUE: __emplace_back_slow_path<const char *&>:__v <- [DW_OP_LLVM_fragment 0 32] $r7
	@DEBUG_VALUE: __emplace_back_slow_path<const char *&>:__v <- [DW_OP_plus_uconst 8, DW_OP_stack_value, DW_OP_LLVM_fragment 128 32] $r11
	@DEBUG_VALUE: __emplace_back_slow_path<const char *&>:__a <- [DW_OP_plus_uconst 8, DW_OP_stack_value] $r11
	@DEBUG_VALUE: __emplace_back_slow_path<const char *&>:this <- $r11
	.loc	2 0 0 is_stmt 0                 @ AppData\Local\Keil_v5\ARM\ARMCLANG\bin\..\include\libcxx\vector:0:0
	add.w	r0, r4, r4, lsl #1
.Ltmp96:
	.loc	5 2337 7 is_stmt 1              @ AppData\Local\Keil_v5\ARM\ARMCLANG\bin\..\include\libcxx\string:2337:7
	cmp	r6, #11
.Ltmp97:
	.loc	2 0 0 is_stmt 0                 @ AppData\Local\Keil_v5\ARM\ARMCLANG\bin\..\include\libcxx\vector:0:0
	add.w	r10, r7, r0, lsl #2
.Ltmp98:
	@DEBUG_VALUE: __fits_in_sso:__sz <- $r6
	@DEBUG_VALUE: __emplace_back_slow_path<const char *&>:__v <- [DW_OP_LLVM_fragment 96 32] $r10
	.loc	5 2337 7                        @ AppData\Local\Keil_v5\ARM\ARMCLANG\bin\..\include\libcxx\string:2337:7
	bhs	.LBB4_8
.Ltmp99:
@ %bb.7:
	@DEBUG_VALUE: __emplace_back_slow_path<const char *&>:__v <- [DW_OP_LLVM_fragment 96 32] $r10
	@DEBUG_VALUE: __init:this <- $r5
	@DEBUG_VALUE: __init:__sz <- $r6
	@DEBUG_VALUE: __init:__s <- $r8
	@DEBUG_VALUE: __emplace_back_slow_path<const char *&>:__v <- [DW_OP_LLVM_fragment 64 32] $r5
	@DEBUG_VALUE: __emplace_back_slow_path<const char *&>:__v <- [DW_OP_LLVM_fragment 32 32] $r5
	@DEBUG_VALUE: construct<std::__2::basic_string<char, std::__2::char_traits<char>, std::__2::allocator<char> >, const char *&, 0>:__p <- $r5
	@DEBUG_VALUE: construct<std::__2::basic_string<char, std::__2::char_traits<char>, std::__2::allocator<char> >, const char *&>:__p <- $r5
	@DEBUG_VALUE: construct<std::__2::basic_string<char, std::__2::char_traits<char>, std::__2::allocator<char> >, const char *&, 0>:__a <- [DW_OP_plus_uconst 8, DW_OP_stack_value] $r11
	@DEBUG_VALUE: construct<std::__2::basic_string<char, std::__2::char_traits<char>, std::__2::allocator<char> >, const char *&>:this <- [DW_OP_plus_uconst 8, DW_OP_stack_value] $r11
	@DEBUG_VALUE: basic_string<0>:__s <- $r8
	@DEBUG_VALUE: __emplace_back_slow_path<const char *&>:__v <- [DW_OP_LLVM_fragment 0 32] $r7
	@DEBUG_VALUE: __emplace_back_slow_path<const char *&>:__v <- [DW_OP_plus_uconst 8, DW_OP_stack_value, DW_OP_LLVM_fragment 128 32] $r11
	@DEBUG_VALUE: __emplace_back_slow_path<const char *&>:__a <- [DW_OP_plus_uconst 8, DW_OP_stack_value] $r11
	@DEBUG_VALUE: __emplace_back_slow_path<const char *&>:this <- $r11
	@DEBUG_VALUE: __set_short_size:this <- $r5
	@DEBUG_VALUE: __set_short_size:__s <- $r6
	.loc	5 0 7                           @ AppData\Local\Keil_v5\ARM\ARMCLANG\bin\..\include\libcxx\string:0:7
	mov	r7, r5
.Ltmp100:
	.loc	5 1957 33 is_stmt 1             @ AppData\Local\Keil_v5\ARM\ARMCLANG\bin\..\include\libcxx\string:1957:33
	strb	r6, [r5, #11]
.Ltmp101:
	@DEBUG_VALUE: __constexpr_memmove<char, const char, 0>:__count <- $r6
	@DEBUG_VALUE: __constexpr_memmove<char, const char, 0>:__n <- $r6
	@DEBUG_VALUE: __constexpr_memmove<char, const char, 0>:__src <- $r8
	@DEBUG_VALUE: copy:__n <- $r6
	@DEBUG_VALUE: copy:__s2 <- $r8
	@DEBUG_VALUE: __constexpr_memmove<char, const char, 0>:__dest <- $r5
	@DEBUG_VALUE: copy:__s1 <- $r5
	@DEBUG_VALUE: __init:__p <- $r5
	.loc	17 226 14                       @ AppData\Local\Keil_v5\ARM\ARMCLANG\bin\..\include\libcxx\__string\constexpr_c_functions.h:226:14
	cbnz	r6, .LBB4_9
	b	.LBB4_10
.Ltmp102:
.LBB4_8:
	@DEBUG_VALUE: __emplace_back_slow_path<const char *&>:__v <- [DW_OP_LLVM_fragment 96 32] $r10
	@DEBUG_VALUE: __init:this <- $r5
	@DEBUG_VALUE: __init:__sz <- $r6
	@DEBUG_VALUE: __init:__s <- $r8
	@DEBUG_VALUE: __emplace_back_slow_path<const char *&>:__v <- [DW_OP_LLVM_fragment 64 32] $r5
	@DEBUG_VALUE: __emplace_back_slow_path<const char *&>:__v <- [DW_OP_LLVM_fragment 32 32] $r5
	@DEBUG_VALUE: construct<std::__2::basic_string<char, std::__2::char_traits<char>, std::__2::allocator<char> >, const char *&, 0>:__p <- $r5
	@DEBUG_VALUE: construct<std::__2::basic_string<char, std::__2::char_traits<char>, std::__2::allocator<char> >, const char *&>:__p <- $r5
	@DEBUG_VALUE: construct<std::__2::basic_string<char, std::__2::char_traits<char>, std::__2::allocator<char> >, const char *&, 0>:__a <- [DW_OP_plus_uconst 8, DW_OP_stack_value] $r11
	@DEBUG_VALUE: construct<std::__2::basic_string<char, std::__2::char_traits<char>, std::__2::allocator<char> >, const char *&>:this <- [DW_OP_plus_uconst 8, DW_OP_stack_value] $r11
	@DEBUG_VALUE: basic_string<0>:__s <- $r8
	@DEBUG_VALUE: __emplace_back_slow_path<const char *&>:__v <- [DW_OP_LLVM_fragment 0 32] $r7
	@DEBUG_VALUE: __emplace_back_slow_path<const char *&>:__v <- [DW_OP_plus_uconst 8, DW_OP_stack_value, DW_OP_LLVM_fragment 128 32] $r11
	@DEBUG_VALUE: __emplace_back_slow_path<const char *&>:__a <- [DW_OP_plus_uconst 8, DW_OP_stack_value] $r11
	@DEBUG_VALUE: __emplace_back_slow_path<const char *&>:this <- $r11
	@DEBUG_VALUE: __recommend:__s <- $r6
	.loc	5 2064 9                        @ AppData\Local\Keil_v5\ARM\ARMCLANG\bin\..\include\libcxx\string:2064:9
	orr	r0, r6, #7
.Ltmp103:
	.loc	5 2341 79                       @ AppData\Local\Keil_v5\ARM\ARMCLANG\bin\..\include\libcxx\string:2341:79
	add.w	r9, r0, #1
.Ltmp104:
	@DEBUG_VALUE: __libcpp_allocate:__align <- 1
	@DEBUG_VALUE: allocate:this <- $r5
	@DEBUG_VALUE: __allocate_at_least<std::__2::allocator<char> >:__alloc <- $r5
	@DEBUG_VALUE: __libcpp_operator_new<unsigned int>:__args <- $r9
	@DEBUG_VALUE: __libcpp_allocate:__size <- $r9
	@DEBUG_VALUE: allocate:__n <- $r9
	@DEBUG_VALUE: __allocate_at_least<std::__2::allocator<char> >:__n <- $r9
	.loc	4 272 10                        @ AppData\Local\Keil_v5\ARM\ARMCLANG\bin\..\include\libcxx\new:272:10
	mov	r0, r9
	bl	_Znwj
.Ltmp105:
	mov	r7, r0
.Ltmp106:
	@DEBUG_VALUE: __set_long_cap:__s <- $r9
	@DEBUG_VALUE: __set_long_cap:this <- $r5
	@DEBUG_VALUE: __allocation <- [DW_OP_LLVM_fragment 32 32] $r9
	@DEBUG_VALUE: __init:__p <- $r7
	@DEBUG_VALUE: __allocation <- [DW_OP_LLVM_fragment 0 32] $r7
	.loc	5 1981 33                       @ AppData\Local\Keil_v5\ARM\ARMCLANG\bin\..\include\libcxx\string:1981:33
	orr	r0, r9, #-2147483648
.Ltmp107:
	@DEBUG_VALUE: __set_long_pointer:this <- $r5
	@DEBUG_VALUE: __set_long_pointer:__p <- $r7
	@DEBUG_VALUE: __set_long_size:__s <- $r6
	@DEBUG_VALUE: __set_long_size:this <- $r5
	.loc	5 1989 30                       @ AppData\Local\Keil_v5\ARM\ARMCLANG\bin\..\include\libcxx\string:1989:30
	strd	r7, r6, [r5]
.Ltmp108:
	.loc	5 1981 33                       @ AppData\Local\Keil_v5\ARM\ARMCLANG\bin\..\include\libcxx\string:1981:33
	str	r0, [r5, #8]
.Ltmp109:
	@DEBUG_VALUE: __constexpr_memmove<char, const char, 0>:__count <- $r6
	@DEBUG_VALUE: __constexpr_memmove<char, const char, 0>:__n <- $r6
	@DEBUG_VALUE: __constexpr_memmove<char, const char, 0>:__src <- $r8
	@DEBUG_VALUE: copy:__n <- $r6
	@DEBUG_VALUE: copy:__s2 <- $r8
	@DEBUG_VALUE: __constexpr_memmove<char, const char, 0>:__dest <- $r7
	@DEBUG_VALUE: copy:__s1 <- $r7
.LBB4_9:
	@DEBUG_VALUE: copy:__s2 <- $r8
	@DEBUG_VALUE: copy:__n <- $r6
	@DEBUG_VALUE: __constexpr_memmove<char, const char, 0>:__src <- $r8
	@DEBUG_VALUE: __constexpr_memmove<char, const char, 0>:__n <- $r6
	@DEBUG_VALUE: __constexpr_memmove<char, const char, 0>:__count <- $r6
	@DEBUG_VALUE: __emplace_back_slow_path<const char *&>:__v <- [DW_OP_LLVM_fragment 96 32] $r10
	@DEBUG_VALUE: __init:this <- $r5
	@DEBUG_VALUE: __init:__sz <- $r6
	@DEBUG_VALUE: __init:__s <- $r8
	@DEBUG_VALUE: __emplace_back_slow_path<const char *&>:__v <- [DW_OP_LLVM_fragment 64 32] $r5
	@DEBUG_VALUE: __emplace_back_slow_path<const char *&>:__v <- [DW_OP_LLVM_fragment 32 32] $r5
	@DEBUG_VALUE: construct<std::__2::basic_string<char, std::__2::char_traits<char>, std::__2::allocator<char> >, const char *&, 0>:__p <- $r5
	@DEBUG_VALUE: construct<std::__2::basic_string<char, std::__2::char_traits<char>, std::__2::allocator<char> >, const char *&>:__p <- $r5
	@DEBUG_VALUE: construct<std::__2::basic_string<char, std::__2::char_traits<char>, std::__2::allocator<char> >, const char *&, 0>:__a <- [DW_OP_plus_uconst 8, DW_OP_stack_value] $r11
	@DEBUG_VALUE: construct<std::__2::basic_string<char, std::__2::char_traits<char>, std::__2::allocator<char> >, const char *&>:this <- [DW_OP_plus_uconst 8, DW_OP_stack_value] $r11
	@DEBUG_VALUE: basic_string<0>:__s <- $r8
	@DEBUG_VALUE: __emplace_back_slow_path<const char *&>:__v <- [DW_OP_plus_uconst 8, DW_OP_stack_value, DW_OP_LLVM_fragment 128 32] $r11
	@DEBUG_VALUE: __emplace_back_slow_path<const char *&>:__a <- [DW_OP_plus_uconst 8, DW_OP_stack_value] $r11
	@DEBUG_VALUE: __emplace_back_slow_path<const char *&>:this <- $r11
	.loc	17 227 5                        @ AppData\Local\Keil_v5\ARM\ARMCLANG\bin\..\include\libcxx\__string\constexpr_c_functions.h:227:5
	mov	r0, r7
	mov	r1, r8
	mov	r2, r6
	bl	__aeabi_memmove
.Ltmp110:
.LBB4_10:
	@DEBUG_VALUE: __emplace_back_slow_path<const char *&>:__v <- [DW_OP_LLVM_fragment 96 32] $r10
	@DEBUG_VALUE: __init:this <- $r5
	@DEBUG_VALUE: __init:__sz <- $r6
	@DEBUG_VALUE: __init:__s <- $r8
	@DEBUG_VALUE: __emplace_back_slow_path<const char *&>:__v <- [DW_OP_LLVM_fragment 64 32] $r5
	@DEBUG_VALUE: __emplace_back_slow_path<const char *&>:__v <- [DW_OP_LLVM_fragment 32 32] $r5
	@DEBUG_VALUE: construct<std::__2::basic_string<char, std::__2::char_traits<char>, std::__2::allocator<char> >, const char *&, 0>:__p <- $r5
	@DEBUG_VALUE: construct<std::__2::basic_string<char, std::__2::char_traits<char>, std::__2::allocator<char> >, const char *&>:__p <- $r5
	@DEBUG_VALUE: construct<std::__2::basic_string<char, std::__2::char_traits<char>, std::__2::allocator<char> >, const char *&, 0>:__a <- [DW_OP_plus_uconst 8, DW_OP_stack_value] $r11
	@DEBUG_VALUE: construct<std::__2::basic_string<char, std::__2::char_traits<char>, std::__2::allocator<char> >, const char *&>:this <- [DW_OP_plus_uconst 8, DW_OP_stack_value] $r11
	@DEBUG_VALUE: basic_string<0>:__s <- $r8
	@DEBUG_VALUE: __emplace_back_slow_path<const char *&>:__v <- [DW_OP_plus_uconst 8, DW_OP_stack_value, DW_OP_LLVM_fragment 128 32] $r11
	@DEBUG_VALUE: __emplace_back_slow_path<const char *&>:__a <- [DW_OP_plus_uconst 8, DW_OP_stack_value] $r11
	@DEBUG_VALUE: __emplace_back_slow_path<const char *&>:this <- $r11
	.loc	17 0 5 is_stmt 0                @ AppData\Local\Keil_v5\ARM\ARMCLANG\bin\..\include\libcxx\__string\constexpr_c_functions.h:0:5
	movs	r0, #0
.Ltmp111:
	@DEBUG_VALUE: assign:__c2 <- undef
	@DEBUG_VALUE: assign:__c1 <- [DW_OP_LLVM_arg 0, DW_OP_LLVM_arg 1, DW_OP_plus, DW_OP_stack_value] $r7, $r6
	.loc	9 92 10 is_stmt 1               @ AppData\Local\Keil_v5\ARM\ARMCLANG\bin\..\include\libcxx\__string\char_traits.h:92:10
	strb	r0, [r7, r6]
.Ltmp112:
	.loc	2 1538 13                       @ AppData\Local\Keil_v5\ARM\ARMCLANG\bin\..\include\libcxx\vector:1538:13
	add.w	r6, r5, #12
.Ltmp113:
	@DEBUG_VALUE: __swap_out_circular_buffer:__v <- undef
	@DEBUG_VALUE: __swap_out_circular_buffer:this <- $r11
	@DEBUG_VALUE: __emplace_back_slow_path<const char *&>:__v <- [DW_OP_LLVM_fragment 64 32] $r6
	.loc	2 1050 47                       @ AppData\Local\Keil_v5\ARM\ARMCLANG\bin\..\include\libcxx\vector:1050:47
	ldrd	r7, r0, [r11]
.Ltmp114:
	.loc	20 641 5                        @ AppData\Local\Keil_v5\ARM\ARMCLANG\bin\..\include\libcxx\__memory\uninitialized_algorithms.h:641:5
	mov	r1, r7
.Ltmp115:
	.loc	2 1050 45                       @ AppData\Local\Keil_v5\ARM\ARMCLANG\bin\..\include\libcxx\vector:1050:45
	subs	r2, r0, r7
	.loc	2 1050 35 is_stmt 0             @ AppData\Local\Keil_v5\ARM\ARMCLANG\bin\..\include\libcxx\vector:1050:35
	subs	r5, r5, r2
.Ltmp116:
	@DEBUG_VALUE: __uninitialized_allocator_relocate<std::__2::allocator<std::__2::basic_string<char, std::__2::char_traits<char>, std::__2::allocator<char> > >, std::__2::basic_string<char, std::__2::char_traits<char>, std::__2::allocator<char> > >:__last <- undef
	@DEBUG_VALUE: __uninitialized_allocator_relocate<std::__2::allocator<std::__2::basic_string<char, std::__2::char_traits<char>, std::__2::allocator<char> > >, std::__2::basic_string<char, std::__2::char_traits<char>, std::__2::allocator<char> > >:__first <- $r7
	@DEBUG_VALUE: __uninitialized_allocator_relocate<std::__2::allocator<std::__2::basic_string<char, std::__2::char_traits<char>, std::__2::allocator<char> > >, std::__2::basic_string<char, std::__2::char_traits<char>, std::__2::allocator<char> > >:__alloc <- [DW_OP_plus_uconst 8, DW_OP_stack_value] $r11
	@DEBUG_VALUE: __uninitialized_allocator_relocate<std::__2::allocator<std::__2::basic_string<char, std::__2::char_traits<char>, std::__2::allocator<char> > >, std::__2::basic_string<char, std::__2::char_traits<char>, std::__2::allocator<char> > >:__result <- $r5
	@DEBUG_VALUE: __swap_out_circular_buffer:__new_begin <- $r5
	.loc	20 641 5 is_stmt 1              @ AppData\Local\Keil_v5\ARM\ARMCLANG\bin\..\include\libcxx\__memory\uninitialized_algorithms.h:641:5
	mov	r0, r5
	bl	__aeabi_memcpy4
.Ltmp117:
	@DEBUG_VALUE: swap<std::__2::basic_string<char, std::__2::char_traits<char>, std::__2::allocator<char> > *>:__t <- $r7
	@DEBUG_VALUE: swap<std::__2::basic_string<char, std::__2::char_traits<char>, std::__2::allocator<char> > *>:__y <- undef
	@DEBUG_VALUE: swap<std::__2::basic_string<char, std::__2::char_traits<char>, std::__2::allocator<char> > *>:__x <- $r11
	@DEBUG_VALUE: __emplace_back_slow_path<const char *&>:__v <- [DW_OP_LLVM_fragment 32 32] $r5
	@DEBUG_VALUE: swap<std::__2::basic_string<char, std::__2::char_traits<char>, std::__2::allocator<char> > *>:__x <- [DW_OP_plus_uconst 4, DW_OP_stack_value] $r11
	@DEBUG_VALUE: swap<std::__2::basic_string<char, std::__2::char_traits<char>, std::__2::allocator<char> > *>:__t <- $r7
	@DEBUG_VALUE: swap<std::__2::basic_string<char, std::__2::char_traits<char>, std::__2::allocator<char> > *>:__y <- undef
	@DEBUG_VALUE: __emplace_back_slow_path<const char *&>:__v <- [DW_OP_LLVM_fragment 32 32] $r7
	.loc	21 42 11                        @ AppData\Local\Keil_v5\ARM\ARMCLANG\bin\..\include\libcxx\__utility\swap.h:42:11
	ldr.w	r0, [r11, #8]
.Ltmp118:
	@DEBUG_VALUE: swap<std::__2::basic_string<char, std::__2::char_traits<char>, std::__2::allocator<char> > *>:__t <- $r0
	.loc	21 43 7                         @ AppData\Local\Keil_v5\ARM\ARMCLANG\bin\..\include\libcxx\__utility\swap.h:43:7
	strd	r5, r6, [r11]
.Ltmp119:
	@DEBUG_VALUE: swap<std::__2::basic_string<char, std::__2::char_traits<char>, std::__2::allocator<char> > *>:__x <- [DW_OP_plus_uconst 8, DW_OP_stack_value] $r11
	@DEBUG_VALUE: swap<std::__2::basic_string<char, std::__2::char_traits<char>, std::__2::allocator<char> > *>:__y <- undef
	@DEBUG_VALUE: __emplace_back_slow_path<const char *&>:__v <- [DW_OP_LLVM_fragment 64 32] $r7
	.loc	21 43 7 is_stmt 0               @ AppData\Local\Keil_v5\ARM\ARMCLANG\bin\..\include\libcxx\__utility\swap.h:43:7
	str.w	r10, [r11, #8]
.Ltmp120:
	@DEBUG_VALUE: ~__split_buffer:this <- undef
	@DEBUG_VALUE: __emplace_back_slow_path<const char *&>:__v <- [DW_OP_LLVM_fragment 0 32] $r7
	@DEBUG_VALUE: __emplace_back_slow_path<const char *&>:__v <- [DW_OP_LLVM_fragment 96 32] $r0
	.loc	18 364 7 is_stmt 1              @ AppData\Local\Keil_v5\ARM\ARMCLANG\bin\..\include\libcxx\__split_buffer:364:7
	cbz	r7, .LBB4_12
.Ltmp121:
@ %bb.11:
	@DEBUG_VALUE: __emplace_back_slow_path<const char *&>:__v <- [DW_OP_LLVM_fragment 96 32] $r0
	@DEBUG_VALUE: __emplace_back_slow_path<const char *&>:__v <- [DW_OP_LLVM_fragment 64 32] $r7
	@DEBUG_VALUE: __emplace_back_slow_path<const char *&>:__v <- [DW_OP_LLVM_fragment 32 32] $r7
	@DEBUG_VALUE: __emplace_back_slow_path<const char *&>:__v <- [DW_OP_LLVM_fragment 0 32] $r7
	@DEBUG_VALUE: __emplace_back_slow_path<const char *&>:__v <- [DW_OP_plus_uconst 8, DW_OP_stack_value, DW_OP_LLVM_fragment 128 32] $r11
	@DEBUG_VALUE: __emplace_back_slow_path<const char *&>:__a <- [DW_OP_plus_uconst 8, DW_OP_stack_value] $r11
	@DEBUG_VALUE: __emplace_back_slow_path<const char *&>:this <- $r11
	@DEBUG_VALUE: capacity:this <- undef
	.loc	18 139 47                       @ AppData\Local\Keil_v5\ARM\ARMCLANG\bin\..\include\libcxx\__split_buffer:139:47
	subs	r1, r0, r7
.Ltmp122:
	@DEBUG_VALUE: __libcpp_operator_delete<void *, unsigned int>:__args <- $r7
	@DEBUG_VALUE: __do_deallocate_handle_size<>:__ptr <- $r7
	@DEBUG_VALUE: __libcpp_deallocate:__align <- 4
	@DEBUG_VALUE: __libcpp_deallocate:__ptr <- $r7
	@DEBUG_VALUE: deallocate:__p <- $r7
	@DEBUG_VALUE: deallocate:this <- undef
	@DEBUG_VALUE: deallocate:__p <- $r7
	@DEBUG_VALUE: deallocate:__a <- undef
	@DEBUG_VALUE: __libcpp_operator_delete<void *, unsigned int>:__args <- $r1
	@DEBUG_VALUE: __do_deallocate_handle_size<>:__size <- $r1
	@DEBUG_VALUE: __libcpp_deallocate:__size <- $r1
	@DEBUG_VALUE: deallocate:__n <- [DW_OP_constu 12, DW_OP_div, DW_OP_stack_value] $r1
	@DEBUG_VALUE: deallocate:__n <- [DW_OP_constu 12, DW_OP_div, DW_OP_stack_value] $r1
	.loc	4 281 3                         @ AppData\Local\Keil_v5\ARM\ARMCLANG\bin\..\include\libcxx\new:281:3
	mov	r0, r7
.Ltmp123:
	bl	_ZdlPvj
.Ltmp124:
.LBB4_12:
	@DEBUG_VALUE: __emplace_back_slow_path<const char *&>:__v <- [DW_OP_LLVM_fragment 64 32] $r7
	@DEBUG_VALUE: __emplace_back_slow_path<const char *&>:__v <- [DW_OP_LLVM_fragment 32 32] $r7
	@DEBUG_VALUE: __emplace_back_slow_path<const char *&>:__v <- [DW_OP_LLVM_fragment 0 32] $r7
	@DEBUG_VALUE: __emplace_back_slow_path<const char *&>:__v <- [DW_OP_plus_uconst 8, DW_OP_stack_value, DW_OP_LLVM_fragment 128 32] $r11
	@DEBUG_VALUE: __emplace_back_slow_path<const char *&>:__a <- [DW_OP_plus_uconst 8, DW_OP_stack_value] $r11
	@DEBUG_VALUE: __emplace_back_slow_path<const char *&>:this <- $r11
	.loc	2 1541 1                        @ AppData\Local\Keil_v5\ARM\ARMCLANG\bin\..\include\libcxx\vector:1541:1
	mov	r0, r6
	.loc	2 1541 1 epilogue_begin is_stmt 0 @ AppData\Local\Keil_v5\ARM\ARMCLANG\bin\..\include\libcxx\vector:1541:1
	add	sp, #4
	pop.w	{r4, r5, r6, r7, r8, r9, r10, r11, pc}
.Ltmp125:
.LBB4_13:
	@DEBUG_VALUE: __recommend:__new_size <- $r2
	@DEBUG_VALUE: __recommend:this <- $r11
	@DEBUG_VALUE: __recommend:__ms <- 357913941
	@DEBUG_VALUE: __emplace_back_slow_path<const char *&>:__a <- [DW_OP_plus_uconst 8, DW_OP_stack_value] $r11
	@DEBUG_VALUE: __emplace_back_slow_path<const char *&>:this <- $r11
	@DEBUG_VALUE: __emplace_back_slow_path<const char *&>:__args <- $r1
	.loc	2 1115 11 is_stmt 1             @ AppData\Local\Keil_v5\ARM\ARMCLANG\bin\..\include\libcxx\vector:1115:11
	mov	r0, r11
	bl	_ZNKSt3__26vectorINS_12basic_stringIcNS_11char_traitsIcEENS_9allocatorIcEEEENS4_IS6_EEE20__throw_length_errorB8nn200000Ev
.Ltmp126:
.LBB4_14:
	@DEBUG_VALUE: __init:this <- $r5
	@DEBUG_VALUE: __init:__sz <- $r6
	@DEBUG_VALUE: __init:__s <- $r8
	@DEBUG_VALUE: __emplace_back_slow_path<const char *&>:__v <- [DW_OP_LLVM_fragment 64 32] $r5
	@DEBUG_VALUE: __emplace_back_slow_path<const char *&>:__v <- [DW_OP_LLVM_fragment 32 32] $r5
	@DEBUG_VALUE: construct<std::__2::basic_string<char, std::__2::char_traits<char>, std::__2::allocator<char> >, const char *&, 0>:__p <- $r5
	@DEBUG_VALUE: construct<std::__2::basic_string<char, std::__2::char_traits<char>, std::__2::allocator<char> >, const char *&>:__p <- $r5
	@DEBUG_VALUE: construct<std::__2::basic_string<char, std::__2::char_traits<char>, std::__2::allocator<char> >, const char *&, 0>:__a <- [DW_OP_plus_uconst 8, DW_OP_stack_value] $r11
	@DEBUG_VALUE: construct<std::__2::basic_string<char, std::__2::char_traits<char>, std::__2::allocator<char> >, const char *&>:this <- [DW_OP_plus_uconst 8, DW_OP_stack_value] $r11
	@DEBUG_VALUE: basic_string<0>:__s <- $r8
	@DEBUG_VALUE: __emplace_back_slow_path<const char *&>:__v <- [DW_OP_LLVM_fragment 0 32] $r7
	@DEBUG_VALUE: __emplace_back_slow_path<const char *&>:__v <- [DW_OP_plus_uconst 8, DW_OP_stack_value, DW_OP_LLVM_fragment 128 32] $r11
	@DEBUG_VALUE: __emplace_back_slow_path<const char *&>:__a <- [DW_OP_plus_uconst 8, DW_OP_stack_value] $r11
	@DEBUG_VALUE: __emplace_back_slow_path<const char *&>:this <- $r11
	.loc	5 2335 5                        @ AppData\Local\Keil_v5\ARM\ARMCLANG\bin\..\include\libcxx\string:2335:5
	mov	r0, r5
	bl	_ZNKSt3__212basic_stringIcNS_11char_traitsIcEENS_9allocatorIcEEE20__throw_length_errorB8nn200000Ev
.Ltmp127:
.LBB4_15:
	@DEBUG_VALUE: allocate:__n <- $r4
	@DEBUG_VALUE: __allocate_at_least<std::__2::allocator<std::__2::basic_string<char, std::__2::char_traits<char>, std::__2::allocator<char> > > >:__n <- $r4
	@DEBUG_VALUE: __split_buffer:__cap <- $r4
	@DEBUG_VALUE: __split_buffer:__start <- $r5
	@DEBUG_VALUE: __split_buffer:__a <- [DW_OP_plus_uconst 8, DW_OP_stack_value] $r11
	@DEBUG_VALUE: __emplace_back_slow_path<const char *&>:__v <- [DW_OP_LLVM_fragment 96 32] 0
	@DEBUG_VALUE: __emplace_back_slow_path<const char *&>:__v <- [DW_OP_plus_uconst 8, DW_OP_stack_value, DW_OP_LLVM_fragment 128 32] $r11
	@DEBUG_VALUE: __emplace_back_slow_path<const char *&>:__args <- $r6
	@DEBUG_VALUE: __emplace_back_slow_path<const char *&>:__a <- [DW_OP_plus_uconst 8, DW_OP_stack_value] $r11
	@DEBUG_VALUE: __emplace_back_slow_path<const char *&>:this <- $r11
	.loc	11 99 7                         @ AppData\Local\Keil_v5\ARM\ARMCLANG\bin\..\include\libcxx\__memory\allocator.h:99:7
	bl	_ZSt28__throw_bad_array_new_lengthB8nn200000v
.Ltmp128:
.Lfunc_end4:
	.size	_ZNSt3__26vectorINS_12basic_stringIcNS_11char_traitsIcEENS_9allocatorIcEEEENS4_IS6_EEE24__emplace_back_slow_pathIJRPKcEEEPS6_DpOT_, .Lfunc_end4-_ZNSt3__26vectorINS_12basic_stringIcNS_11char_traitsIcEENS_9allocatorIcEEEENS4_IS6_EEE24__emplace_back_slow_pathIJRPKcEEEPS6_DpOT_
	.cfi_endproc
	.cantunwind
	.fnend
                                        @ -- End function
	.section	.text._ZNKSt3__212basic_stringIcNS_11char_traitsIcEENS_9allocatorIcEEE20__throw_length_errorB8nn200000Ev,"axG",%progbits,_ZNKSt3__212basic_stringIcNS_11char_traitsIcEENS_9allocatorIcEEE20__throw_length_errorB8nn200000Ev,comdat
	.hidden	_ZNKSt3__212basic_stringIcNS_11char_traitsIcEENS_9allocatorIcEEE20__throw_length_errorB8nn200000Ev @ -- Begin function _ZNKSt3__212basic_stringIcNS_11char_traitsIcEENS_9allocatorIcEEE20__throw_length_errorB8nn200000Ev
	.weak	_ZNKSt3__212basic_stringIcNS_11char_traitsIcEENS_9allocatorIcEEE20__throw_length_errorB8nn200000Ev
	.p2align	2
	.type	_ZNKSt3__212basic_stringIcNS_11char_traitsIcEENS_9allocatorIcEEE20__throw_length_errorB8nn200000Ev,%function
	.code	16                              @ @_ZNKSt3__212basic_stringIcNS_11char_traitsIcEENS_9allocatorIcEEE20__throw_length_errorB8nn200000Ev
	.thumb_func
_ZNKSt3__212basic_stringIcNS_11char_traitsIcEENS_9allocatorIcEEE20__throw_length_errorB8nn200000Ev:
.Lfunc_begin5:
	.fnstart
	.cfi_startproc
@ %bb.0:
	@DEBUG_VALUE: __throw_length_error:this <- $r0
	.loc	5 2234 5 prologue_end           @ AppData\Local\Keil_v5\ARM\ARMCLANG\bin\..\include\libcxx\string:2234:5
	adr	r0, .LCPI5_0
.Ltmp129:
	@DEBUG_VALUE: __throw_length_error:this <- [DW_OP_LLVM_entry_value 1] $r0
	bl	_ZNSt3__220__throw_length_errorB8nn200000EPKc
.Ltmp130:
	.loc	5 0 5 is_stmt 0                 @ :0:5
.Ltmp131:
	.p2align	2
@ %bb.1:
.LCPI5_0:
.L.str.83:
	.asciz	"basic_string\000\000\000"
.Lfunc_end5:
	.size	_ZNKSt3__212basic_stringIcNS_11char_traitsIcEENS_9allocatorIcEEE20__throw_length_errorB8nn200000Ev, .Lfunc_end5-_ZNKSt3__212basic_stringIcNS_11char_traitsIcEENS_9allocatorIcEEE20__throw_length_errorB8nn200000Ev
	.cfi_endproc
	.cantunwind
	.fnend
                                        @ -- End function
	.type	_ZL9labelsVec,%object           @ @_ZL9labelsVec
	.section	labels,"aw",%progbits
	.p2align	4, 0x0
_ZL9labelsVec:
	.long	.L.str
	.long	.L.str.1
	.long	.L.str.2
	.long	.L.str.3
	.long	.L.str.4
	.long	.L.str.5
	.long	.L.str.6
	.long	.L.str.7
	.long	.L.str.8
	.long	.L.str.9
	.long	.L.str.10
	.long	.L.str.11
	.long	.L.str.12
	.long	.L.str.13
	.long	.L.str.14
	.long	.L.str.15
	.long	.L.str.16
	.long	.L.str.17
	.long	.L.str.18
	.long	.L.str.19
	.long	.L.str.20
	.long	.L.str.21
	.long	.L.str.22
	.long	.L.str.23
	.long	.L.str.24
	.long	.L.str.25
	.long	.L.str.26
	.long	.L.str.27
	.long	.L.str.28
	.long	.L.str.29
	.long	.L.str.30
	.long	.L.str.31
	.long	.L.str.32
	.long	.L.str.33
	.long	.L.str.34
	.long	.L.str.35
	.long	.L.str.36
	.long	.L.str.37
	.long	.L.str.38
	.long	.L.str.39
	.long	.L.str.40
	.long	.L.str.41
	.long	.L.str.42
	.long	.L.str.43
	.long	.L.str.44
	.long	.L.str.45
	.long	.L.str.46
	.long	.L.str.47
	.long	.L.str.48
	.long	.L.str.49
	.long	.L.str.50
	.long	.L.str.51
	.long	.L.str.52
	.long	.L.str.53
	.long	.L.str.54
	.long	.L.str.55
	.long	.L.str.56
	.long	.L.str.57
	.long	.L.str.58
	.long	.L.str.59
	.long	.L.str.60
	.long	.L.str.61
	.long	.L.str.62
	.long	.L.str.63
	.long	.L.str.64
	.long	.L.str.65
	.long	.L.str.66
	.long	.L.str.67
	.long	.L.str.68
	.long	.L.str.69
	.long	.L.str.70
	.long	.L.str.71
	.long	.L.str.72
	.long	.L.str.73
	.long	.L.str.74
	.long	.L.str.75
	.long	.L.str.76
	.long	.L.str.77
	.long	.L.str.78
	.long	.L.str.79
	.size	_ZL9labelsVec, 320

	.type	.L.str,%object                  @ @.str
	.section	.rodata.str1.1,"aMS",%progbits,1
.L.str:
	.asciz	"person"
	.size	.L.str, 7

	.type	.L.str.1,%object                @ @.str.1
.L.str.1:
	.asciz	"bicycle"
	.size	.L.str.1, 8

	.type	.L.str.2,%object                @ @.str.2
.L.str.2:
	.asciz	"car"
	.size	.L.str.2, 4

	.type	.L.str.3,%object                @ @.str.3
.L.str.3:
	.asciz	"motorcycle"
	.size	.L.str.3, 11

	.type	.L.str.4,%object                @ @.str.4
.L.str.4:
	.asciz	"airplane"
	.size	.L.str.4, 9

	.type	.L.str.5,%object                @ @.str.5
.L.str.5:
	.asciz	"bus"
	.size	.L.str.5, 4

	.type	.L.str.6,%object                @ @.str.6
.L.str.6:
	.asciz	"train"
	.size	.L.str.6, 6

	.type	.L.str.7,%object                @ @.str.7
.L.str.7:
	.asciz	"truck"
	.size	.L.str.7, 6

	.type	.L.str.8,%object                @ @.str.8
.L.str.8:
	.asciz	"boat"
	.size	.L.str.8, 5

	.type	.L.str.9,%object                @ @.str.9
.L.str.9:
	.asciz	"traffic light"
	.size	.L.str.9, 14

	.type	.L.str.10,%object               @ @.str.10
.L.str.10:
	.asciz	"fire hydrant"
	.size	.L.str.10, 13

	.type	.L.str.11,%object               @ @.str.11
.L.str.11:
	.asciz	"stop sign"
	.size	.L.str.11, 10

	.type	.L.str.12,%object               @ @.str.12
.L.str.12:
	.asciz	"parking meter"
	.size	.L.str.12, 14

	.type	.L.str.13,%object               @ @.str.13
.L.str.13:
	.asciz	"bench"
	.size	.L.str.13, 6

	.type	.L.str.14,%object               @ @.str.14
.L.str.14:
	.asciz	"bird"
	.size	.L.str.14, 5

	.type	.L.str.15,%object               @ @.str.15
.L.str.15:
	.asciz	"cat"
	.size	.L.str.15, 4

	.type	.L.str.16,%object               @ @.str.16
.L.str.16:
	.asciz	"dog"
	.size	.L.str.16, 4

	.type	.L.str.17,%object               @ @.str.17
.L.str.17:
	.asciz	"horse"
	.size	.L.str.17, 6

	.type	.L.str.18,%object               @ @.str.18
.L.str.18:
	.asciz	"sheep"
	.size	.L.str.18, 6

	.type	.L.str.19,%object               @ @.str.19
.L.str.19:
	.asciz	"cow"
	.size	.L.str.19, 4

	.type	.L.str.20,%object               @ @.str.20
.L.str.20:
	.asciz	"elephant"
	.size	.L.str.20, 9

	.type	.L.str.21,%object               @ @.str.21
.L.str.21:
	.asciz	"bear"
	.size	.L.str.21, 5

	.type	.L.str.22,%object               @ @.str.22
.L.str.22:
	.asciz	"zebra"
	.size	.L.str.22, 6

	.type	.L.str.23,%object               @ @.str.23
.L.str.23:
	.asciz	"giraffe"
	.size	.L.str.23, 8

	.type	.L.str.24,%object               @ @.str.24
.L.str.24:
	.asciz	"backpack"
	.size	.L.str.24, 9

	.type	.L.str.25,%object               @ @.str.25
.L.str.25:
	.asciz	"umbrella"
	.size	.L.str.25, 9

	.type	.L.str.26,%object               @ @.str.26
.L.str.26:
	.asciz	"handbag"
	.size	.L.str.26, 8

	.type	.L.str.27,%object               @ @.str.27
.L.str.27:
	.asciz	"tie"
	.size	.L.str.27, 4

	.type	.L.str.28,%object               @ @.str.28
.L.str.28:
	.asciz	"suitcase"
	.size	.L.str.28, 9

	.type	.L.str.29,%object               @ @.str.29
.L.str.29:
	.asciz	"frisbee"
	.size	.L.str.29, 8

	.type	.L.str.30,%object               @ @.str.30
.L.str.30:
	.asciz	"skis"
	.size	.L.str.30, 5

	.type	.L.str.31,%object               @ @.str.31
.L.str.31:
	.asciz	"snowboard"
	.size	.L.str.31, 10

	.type	.L.str.32,%object               @ @.str.32
.L.str.32:
	.asciz	"sports ball"
	.size	.L.str.32, 12

	.type	.L.str.33,%object               @ @.str.33
.L.str.33:
	.asciz	"kite"
	.size	.L.str.33, 5

	.type	.L.str.34,%object               @ @.str.34
.L.str.34:
	.asciz	"baseball bat"
	.size	.L.str.34, 13

	.type	.L.str.35,%object               @ @.str.35
.L.str.35:
	.asciz	"baseball glove"
	.size	.L.str.35, 15

	.type	.L.str.36,%object               @ @.str.36
.L.str.36:
	.asciz	"skateboard"
	.size	.L.str.36, 11

	.type	.L.str.37,%object               @ @.str.37
.L.str.37:
	.asciz	"surfboard"
	.size	.L.str.37, 10

	.type	.L.str.38,%object               @ @.str.38
.L.str.38:
	.asciz	"tennis racket"
	.size	.L.str.38, 14

	.type	.L.str.39,%object               @ @.str.39
.L.str.39:
	.asciz	"bottle"
	.size	.L.str.39, 7

	.type	.L.str.40,%object               @ @.str.40
.L.str.40:
	.asciz	"wine glass"
	.size	.L.str.40, 11

	.type	.L.str.41,%object               @ @.str.41
.L.str.41:
	.asciz	"cup"
	.size	.L.str.41, 4

	.type	.L.str.42,%object               @ @.str.42
.L.str.42:
	.asciz	"fork"
	.size	.L.str.42, 5

	.type	.L.str.43,%object               @ @.str.43
.L.str.43:
	.asciz	"knife"
	.size	.L.str.43, 6

	.type	.L.str.44,%object               @ @.str.44
.L.str.44:
	.asciz	"spoon"
	.size	.L.str.44, 6

	.type	.L.str.45,%object               @ @.str.45
.L.str.45:
	.asciz	"bowl"
	.size	.L.str.45, 5

	.type	.L.str.46,%object               @ @.str.46
.L.str.46:
	.asciz	"banana"
	.size	.L.str.46, 7

	.type	.L.str.47,%object               @ @.str.47
.L.str.47:
	.asciz	"apple"
	.size	.L.str.47, 6

	.type	.L.str.48,%object               @ @.str.48
.L.str.48:
	.asciz	"sandwich"
	.size	.L.str.48, 9

	.type	.L.str.49,%object               @ @.str.49
.L.str.49:
	.asciz	"orange"
	.size	.L.str.49, 7

	.type	.L.str.50,%object               @ @.str.50
.L.str.50:
	.asciz	"broccoli"
	.size	.L.str.50, 9

	.type	.L.str.51,%object               @ @.str.51
.L.str.51:
	.asciz	"carrot"
	.size	.L.str.51, 7

	.type	.L.str.52,%object               @ @.str.52
.L.str.52:
	.asciz	"hot dog"
	.size	.L.str.52, 8

	.type	.L.str.53,%object               @ @.str.53
.L.str.53:
	.asciz	"pizza"
	.size	.L.str.53, 6

	.type	.L.str.54,%object               @ @.str.54
.L.str.54:
	.asciz	"donut"
	.size	.L.str.54, 6

	.type	.L.str.55,%object               @ @.str.55
.L.str.55:
	.asciz	"cake"
	.size	.L.str.55, 5

	.type	.L.str.56,%object               @ @.str.56
.L.str.56:
	.asciz	"chair"
	.size	.L.str.56, 6

	.type	.L.str.57,%object               @ @.str.57
.L.str.57:
	.asciz	"couch"
	.size	.L.str.57, 6

	.type	.L.str.58,%object               @ @.str.58
.L.str.58:
	.asciz	"potted plant"
	.size	.L.str.58, 13

	.type	.L.str.59,%object               @ @.str.59
.L.str.59:
	.asciz	"bed"
	.size	.L.str.59, 4

	.type	.L.str.60,%object               @ @.str.60
.L.str.60:
	.asciz	"dining table"
	.size	.L.str.60, 13

	.type	.L.str.61,%object               @ @.str.61
.L.str.61:
	.asciz	"toilet"
	.size	.L.str.61, 7

	.type	.L.str.62,%object               @ @.str.62
.L.str.62:
	.asciz	"tv"
	.size	.L.str.62, 3

	.type	.L.str.63,%object               @ @.str.63
.L.str.63:
	.asciz	"laptop"
	.size	.L.str.63, 7

	.type	.L.str.64,%object               @ @.str.64
.L.str.64:
	.asciz	"mouse"
	.size	.L.str.64, 6

	.type	.L.str.65,%object               @ @.str.65
.L.str.65:
	.asciz	"remote"
	.size	.L.str.65, 7

	.type	.L.str.66,%object               @ @.str.66
.L.str.66:
	.asciz	"keyboard"
	.size	.L.str.66, 9

	.type	.L.str.67,%object               @ @.str.67
.L.str.67:
	.asciz	"cell phone"
	.size	.L.str.67, 11

	.type	.L.str.68,%object               @ @.str.68
.L.str.68:
	.asciz	"microwave"
	.size	.L.str.68, 10

	.type	.L.str.69,%object               @ @.str.69
.L.str.69:
	.asciz	"oven"
	.size	.L.str.69, 5

	.type	.L.str.70,%object               @ @.str.70
.L.str.70:
	.asciz	"toaster"
	.size	.L.str.70, 8

	.type	.L.str.71,%object               @ @.str.71
.L.str.71:
	.asciz	"sink"
	.size	.L.str.71, 5

	.type	.L.str.72,%object               @ @.str.72
.L.str.72:
	.asciz	"refrigerator"
	.size	.L.str.72, 13

	.type	.L.str.73,%object               @ @.str.73
.L.str.73:
	.asciz	"book"
	.size	.L.str.73, 5

	.type	.L.str.74,%object               @ @.str.74
.L.str.74:
	.asciz	"clock"
	.size	.L.str.74, 6

	.type	.L.str.75,%object               @ @.str.75
.L.str.75:
	.asciz	"vase"
	.size	.L.str.75, 5

	.type	.L.str.76,%object               @ @.str.76
.L.str.76:
	.asciz	"scissors"
	.size	.L.str.76, 9

	.type	.L.str.77,%object               @ @.str.77
.L.str.77:
	.asciz	"teddy bear"
	.size	.L.str.77, 11

	.type	.L.str.78,%object               @ @.str.78
.L.str.78:
	.asciz	"hair drier"
	.size	.L.str.78, 11

	.type	.L.str.79,%object               @ @.str.79
.L.str.79:
	.asciz	"toothbrush"
	.size	.L.str.79, 11

	.type	.L.str.81,%object               @ @.str.81
.L.str.81:
	.asciz	"length_error was thrown in -fno-exceptions mode with message \"%s\""
	.size	.L.str.81, 66

	.file	24 "C:\\Users\\antia" "AppData\\Local\\Keil_v5\\ARM\\ARMCLANG\\bin\\..\\include\\stddef.h"
	.file	25 "C:\\Users\\antia" "AppData\\Local\\Keil_v5\\ARM\\ARMCLANG\\bin\\..\\include\\libcxx\\stddef.h"
	.file	26 "C:\\Users\\antia" "AppData\\Local\\Keil_v5\\ARM\\ARMCLANG\\bin\\..\\include\\libcxx\\cstddef"
	.file	27 "C:\\Users\\antia" "AppData\\Local\\Keil_v5\\ARM\\ARMCLANG\\bin\\..\\include\\stdint.h"
	.file	28 "C:\\Users\\antia" "AppData\\Local\\Keil_v5\\ARM\\ARMCLANG\\bin\\..\\include\\libcxx\\cstdint"
	.file	29 "C:\\Users\\antia" "AppData\\Local\\Keil_v5\\ARM\\ARMCLANG\\bin\\..\\include\\libcxx\\cstdlib"
	.file	30 "C:\\Users\\antia" "AppData\\Local\\Keil_v5\\ARM\\ARMCLANG\\bin\\..\\include\\libcxx\\stdlib.h"
	.file	31 "C:\\Users\\antia" "AppData\\Local\\Keil_v5\\ARM\\ARMCLANG\\bin\\..\\include\\ctype.h"
	.file	32 "C:\\Users\\antia" "AppData\\Local\\Keil_v5\\ARM\\ARMCLANG\\bin\\..\\include\\libcxx\\cctype"
	.file	33 "C:\\Users\\antia" "AppData\\Local\\Keil_v5\\ARM\\ARMCLANG\\bin\\..\\include\\wctype.h"
	.file	34 "C:\\Users\\antia" "AppData\\Local\\Keil_v5\\ARM\\ARMCLANG\\bin\\..\\include\\libcxx\\cwctype"
	.file	35 "C:\\Users\\antia" "AppData\\Local\\Keil_v5\\ARM\\ARMCLANG\\bin\\..\\include\\wchar.h"
	.file	36 "C:\\Users\\antia\\TING\\114\\chip\\ML_M55M1_SampleCode\\M55M1BSP-3.01.003\\SampleCode\\NuEdgeWise\\ObjectTracker_YOLOv8n\\KEIL" "../Model\\Labels.cpp"
	.file	37 "C:\\Users\\antia" "AppData\\Local\\Keil_v5\\ARM\\ARMCLANG\\bin\\..\\include\\libcxx\\cwchar"
	.file	38 "C:\\Users\\antia" "AppData\\Local\\Keil_v5\\ARM\\ARMCLANG\\bin\\..\\include\\libcxx\\wchar.h"
	.file	39 "C:\\Users\\antia" "AppData\\Local\\Keil_v5\\ARM\\ARMCLANG\\bin\\..\\include\\string.h"
	.file	40 "C:\\Users\\antia" "AppData\\Local\\Keil_v5\\ARM\\ARMCLANG\\bin\\..\\include\\libcxx\\cstring"
	.file	41 "C:\\Users\\antia" "AppData\\Local\\Keil_v5\\ARM\\ARMCLANG\\bin\\..\\include\\libcxx\\string.h"
	.file	42 "C:\\Users\\antia" "AppData\\Local\\Keil_v5\\ARM\\ARMCLANG\\bin\\..\\include\\libcxx\\__std_mbstate_t.h"
	.file	43 "C:\\Users\\antia" "AppData\\Local\\Keil_v5\\ARM\\ARMCLANG\\bin\\..\\include\\libcxx\\cstdio"
	.file	44 "C:\\Users\\antia" "AppData\\Local\\Keil_v5\\ARM\\ARMCLANG\\bin\\..\\include\\math.h"
	.file	45 "C:\\Users\\antia" "AppData\\Local\\Keil_v5\\ARM\\ARMCLANG\\bin\\..\\include\\libcxx\\__math\\traits.h"
	.file	46 "C:\\Users\\antia" "AppData\\Local\\Keil_v5\\ARM\\ARMCLANG\\bin\\..\\include\\libcxx\\math.h"
	.file	47 "C:\\Users\\antia" "AppData\\Local\\Keil_v5\\ARM\\ARMCLANG\\bin\\..\\include\\libcxx\\__math\\modulo.h"
	.file	48 "C:\\Users\\antia" "AppData\\Local\\Keil_v5\\ARM\\ARMCLANG\\bin\\..\\include\\libcxx\\cmath"
	.file	49 "C:\\Users\\antia" "AppData\\Local\\Keil_v5\\ARM\\ARMCLANG\\bin\\..\\include\\libcxx\\__chrono\\duration.h"
	.file	50 "C:\\Users\\antia" "AppData\\Local\\Keil_v5\\ARM\\ARMCLANG\\bin\\..\\include\\libcxx\\ctime"
	.file	51 "C:\\Users\\antia" "AppData\\Local\\Keil_v5\\ARM\\ARMCLANG\\bin\\..\\include\\errno.h"
	.file	52 "C:\\Users\\antia" "AppData\\Local\\Keil_v5\\ARM\\ARMCLANG\\bin\\..\\include\\locale.h"
	.file	53 "C:\\Users\\antia" "AppData\\Local\\Keil_v5\\ARM\\ARMCLANG\\bin\\..\\include\\libcxx\\clocale"
	.file	54 "C:\\Users\\antia" "AppData\\Local\\Keil_v5\\ARM\\ARMCLANG\\bin\\..\\include\\stdarg.h"
	.file	55 "C:\\Users\\antia" "AppData\\Local\\Keil_v5\\ARM\\ARMCLANG\\bin\\..\\include\\libcxx\\cstdarg"